ccopy_reg
_reconstructor
p0
(cnetworkx.classes.multidigraph
MultiDiGraph
p1
c__builtin__
object
p2
Ntp3
Rp4
(dp5
S'node'
p6
(dp7
Vlimited
p8
(dp9
S'word'
p10
(lp11
g8
aVVBN
p12
a(g8
g12
tp13
a(g8
g12
tp14
a(g8
g12
tp15
assVall
p16
(dp17
sVconsider
p18
(dp19
g10
(lp20
Vconsidered
p21
aVVBN
p22
a(g21
g22
tp23
a(g21
g22
tp24
a(g21
g22
tp25
a(Vconsider
p26
VVBP
p27
tp28
a(g26
g27
tp29
a(g26
g27
tp30
a(g26
g27
tp31
a(g26
g27
tp32
a(Vconsidering
p33
VVBG
p34
tp35
assValien
p36
(dp37
g10
(lp38
Valiens
p39
aVNNS
p40
a(g39
g40
tp41
a(Valiens
p42
VNNS
p43
tp44
a(g42
g43
tp45
a(g42
g43
tp46
a(g42
g43
tp47
a(Valiens
p48
VNNS
p49
tp50
a(g48
g49
tp51
a(g48
g49
tp52
a(Valiens
p53
VNNS
p54
tp55
a(g53
g54
tp56
a(g53
g54
tp57
a(g53
g54
tp58
a(g53
g54
tp59
a(Valiens
p60
VNNS
p61
tp62
a(g60
g61
tp63
a(g60
g61
tp64
a(Valiens
p65
VNNS
p66
tp67
a(Valiens
p68
VNNS
p69
tp70
a(g68
g69
tp71
a(g68
g69
tp72
a(Valiens
p73
VNNS
p74
tp75
a(g73
g74
tp76
a(g73
g74
tp77
a(g73
g74
tp78
assVgo
p79
(dp80
g10
(lp81
Vgoes
p82
aVVBZ
p83
a(g82
g83
tp84
a(g82
g83
tp85
a(g82
g83
tp86
a(g82
g83
tp87
assVsupposedly
p88
(dp89
sVto
p90
(dp91
sVpresent
p92
(dp93
sVvery
p94
(dp95
sVsubservient
p96
(dp97
g10
(lp98
g96
aVJJ
p99
a(g96
g99
tp100
a(g96
g99
tp101
a(g96
g99
tp102
assVentire
p103
(dp104
sVexaggerate
p105
(dp106
g10
(lp107
g105
aVVB
p108
a(g105
g108
tp109
assVbenevolent
p110
(dp111
g10
(lp112
g110
aVJJ
p113
a(g110
g113
tp114
a(g110
g113
tp115
assVlist
p116
(dp117
g10
(lp118
g116
aVNN
p119
a(g116
g119
tp120
assVlarge
p121
(dp122
sVrace
p123
(dp124
g10
(lp125
g123
aVNN
p126
a(g123
g126
tp127
a(g123
g126
tp128
a(Vrace
p129
VNN
p130
tp131
a(g129
g130
tp132
a(g129
g130
tp133
a(g129
g130
tp134
a(Vrace
p135
VNN
p136
tp137
a(g135
g136
tp138
a(g135
g136
tp139
a(g135
g136
tp140
a(g135
g136
tp141
a(Vrace
p142
VNN
p143
tp144
a(g142
g143
tp145
a(g142
g143
tp146
a(Vrace
p147
VNN
p148
tp149
a(g147
g148
tp150
a(g147
g148
tp151
a(g147
g148
tp152
a(g147
g148
tp153
a(g147
g148
tp154
assVdisclaimer
p155
(dp156
g10
(lp157
g155
aVNN
p158
assVenjoy
p159
(dp160
g10
(lp161
g159
aVVB
p162
a(g159
g162
tp163
assVspiritual
p164
(dp165
sVleaders
p166
(dp167
g10
(lp168
g166
aVNNS
p169
a(g166
g169
tp170
assVdealing
p171
(dp172
g10
(lp173
g171
aVVBG
p174
a(g171
g174
tp175
assVpass
p176
(dp177
g10
(lp178
g176
aVVB
p179
a(g176
g179
tp180
a(g176
g179
tp181
assVwhat
p182
(dp183
sV5-6ft
p184
(dp185
sVappear
p186
(dp187
g10
(lp188
g186
aVVB
p189
a(g186
g189
tp190
a(g186
g189
tp191
a(g186
g189
tp192
a(g186
g189
tp193
a(Vappear
p194
VVBP
p195
tp196
a(g194
g195
tp197
a(Vappears
p198
VVBZ
p199
tp200
a(g198
g199
tp201
a(Vappear
p202
VVBP
p203
tp204
a(g202
g203
tp205
a(Vappear
p206
VVBP
p207
tp208
a(g206
g207
tp209
a(Vappear
p210
VVB
p211
tp212
a(g210
g211
tp213
a(g210
g211
tp214
a(g210
g211
tp215
assVassistance
p216
(dp217
g10
(lp218
g216
aVNN
p219
a(g216
g219
tp220
a(g216
g219
tp221
a(g216
g219
tp222
a(g216
g219
tp223
assVschedule
p224
(dp225
g10
(lp226
g224
aVNN
p227
a(g224
g227
tp228
assVinfuse
p229
(dp230
g10
(lp231
g229
aVVB
p232
a(g229
g232
tp233
a(g229
g232
tp234
a(g229
g232
tp235
assVnew
p236
(dp237
sVbody
p238
(dp239
g10
(lp240
g238
aVNN
p241
a(g238
g241
tp242
a(g238
g241
tp243
a(g238
g241
tp244
assVhere
p245
(dp246
sVunderstanding
p247
(dp248
g10
(lp249
g247
aVNN
p250
a(g247
g250
tp251
a(g247
g250
tp252
a(g247
g250
tp253
assVconsideration
p254
(dp255
g10
(lp256
g254
aVNN
p257
a(g254
g257
tp258
a(g254
g257
tp259
a(g254
g257
tp260
assValong
p261
(dp262
g10
(lp263
g261
aVIN
p264
assVgreat
p265
(dp266
sVsubstance
p267
(dp268
g10
(lp269
Vsubstances
p270
aVNNS
p271
a(g270
g271
tp272
assVmy
p273
(dp274
sVstudy
p275
(dp276
g10
(lp277
g275
aVNN
p278
a(g275
g278
tp279
a(g275
g278
tp280
assV30
p281
(dp282
sVcommonly
p283
(dp284
g10
(lp285
g283
aVRB
p286
assVsub-types
p287
(dp288
g10
(lp289
g287
aVNNS
p290
assVbenevolence
p291
(dp292
g10
(lp293
g291
aVNN
p294
a(g291
g294
tp295
a(g291
g294
tp296
assVsocial
p297
(dp298
sVusually
p299
(dp300
sVopinion
p301
(dp302
g10
(lp303
g301
aVNN
p304
a(g301
g304
tp305
assVuseful
p306
(dp307
g10
(lp308
g306
aVJJ
p309
assVprefer
p310
(dp311
g10
(lp312
g310
aVVBP
p313
assVhighly
p314
(dp315
sVthought
p316
(dp317
g10
(lp318
g316
aVVBD
p319
a(g316
g319
tp320
a(g316
g319
tp321
a(g316
g319
tp322
a(g316
g319
tp323
assVuse
p324
(dp325
g10
(lp326
g324
aVVB
p327
a(g324
g327
tp328
a(g324
g327
tp329
a(Vuse
p330
VVB
p331
tp332
a(g330
g331
tp333
a(g330
g331
tp334
a(g330
g331
tp335
a(g330
g331
tp336
a(g330
g331
tp337
a(Vuse
p338
VVB
p339
tp340
a(g338
g339
tp341
a(g338
g339
tp342
assVfrom
p343
(dp344
sVproceed
p345
(dp346
g10
(lp347
g345
aVVB
p348
a(g345
g348
tp349
assVwould
p350
(dp351
sVtwo
p352
(dp353
sVintense
p354
(dp355
sVfew
p356
(dp357
g10
(lp358
g356
aVJJ
p359
a(g356
g359
tp360
assVlive
p361
(dp362
g10
(lp363
g361
aVVB
p364
assVasteroid
p365
(dp366
sVcall
p367
(dp368
g10
(lp369
Vcalled
p370
aVVBN
p371
a(g370
g371
tp372
a(g370
g371
tp373
a(g370
g371
tp374
assVtherefore
p375
(dp376
sVtype
p377
(dp378
g10
(lp379
g377
aVNN
p380
a(g377
g380
tp381
a(g377
g380
tp382
a(Vtype
p383
VNN
p384
tp385
a(g383
g384
tp386
a(Vtype
p387
VNN
p388
tp389
a(g387
g388
tp390
a(g387
g388
tp391
a(Vtype
p392
VNN
p393
tp394
a(g392
g393
tp395
a(g392
g393
tp396
a(g392
g393
tp397
a(Vtype
p398
VNN
p399
tp400
a(g398
g399
tp401
a(Vtype
p402
VNN
p403
tp404
a(g402
g403
tp405
a(g402
g403
tp406
a(Vtype
p407
VNN
p408
tp409
a(Vtype
p410
VNN
p411
tp412
a(Vtype
p413
VNN
p414
tp415
a(g413
g414
tp416
a(g413
g414
tp417
a(Vtype
p418
VNN
p419
tp420
a(g418
g419
tp421
a(g418
g419
tp422
a(g418
g419
tp423
a(Vtype
p424
VNN
p425
tp426
a(g424
g425
tp427
a(g424
g425
tp428
a(Vtype
p429
VNN
p430
tp431
a(g429
g430
tp432
a(g429
g430
tp433
a(Vtype
p434
VNN
p435
tp436
a(g434
g435
tp437
a(g434
g435
tp438
a(Vtype
p439
VNN
p440
tp441
a(g439
g440
tp442
a(Vtype
p443
VNN
p444
tp445
a(Vtype
p446
VNN
p447
tp448
a(g446
g447
tp449
a(g446
g447
tp450
a(g446
g447
tp451
a(g446
g447
tp452
assVmore
p453
(dp454
sVhawkish
p455
(dp456
g10
(lp457
g455
aVNN
p458
a(g455
g458
tp459
a(g455
g458
tp460
a(g455
g458
tp461
a(g455
g458
tp462
a(g455
g458
tp463
assVaware
p464
(dp465
g10
(lp466
g464
aVJJ
p467
a(g464
g467
tp468
a(g464
g467
tp469
a(g464
g467
tp470
a(g464
g467
tp471
a(g464
g467
tp472
assVtrain
p473
(dp474
g10
(lp475
Vtrained
p476
aVVBN
p477
a(g476
g477
tp478
a(g476
g477
tp479
assV90
p480
(dp481
sVhold
p482
(dp483
g10
(lp484
Vholds
p485
aVVBZ
p486
a(g485
g486
tp487
a(g485
g486
tp488
assVme
p489
(dp490
g10
(lp491
g489
aVPRP
p492
a(Vme
p493
VPRP
p494
tp495
assVthis
p496
(dp497
sVscience
p498
(dp499
g10
(lp500
g498
aVNN
p501
a(g498
g501
tp502
a(Vscience
p503
VNN
p504
tp505
assVslit
p506
(dp507
sVreproduce
p508
(dp509
g10
(lp510
g508
aVVB
p511
assVvega
p512
(dp513
sVcan
p514
(dp515
sVisland
p516
(dp517
g10
(lp518
Vislands
p519
aVNNS
p520
a(g519
g520
tp521
a(g519
g520
tp522
a(g519
g520
tp523
a(g519
g520
tp524
assVakin
p525
(dp526
g10
(lp527
g525
aVJJ
p528
assVroot
p529
(dp530
sVcontrol
p531
(dp532
g10
(lp533
Vcontrol
p534
aVNN
p535
a(Vcontrols
p536
VNNS
p537
tp538
a(g536
g537
tp539
a(g536
g537
tp540
a(g536
g537
tp541
a(Vcontrol
p542
VNN
p543
tp544
a(g542
g543
tp545
assVclaim
p546
(dp547
g10
(lp548
Vclaims
p549
aVNNS
p550
assVshare
p551
(dp552
g10
(lp553
g551
aVVB
p554
a(g551
g554
tp555
a(g551
g554
tp556
assVinvolve
p557
(dp558
g10
(lp559
Vinvolved
p560
aVJJ
p561
a(g560
g561
tp562
a(Vinvolved
p563
VVBN
p564
tp565
a(g563
g564
tp566
a(g563
g564
tp567
a(g563
g564
tp568
assVorion
p569
(dp570
g10
(lp571
Vorion
p572
aVNN
p573
a(Vorion
p574
VNN
p575
tp576
assVrefine
p577
(dp578
g10
(lp579
Vrefined
p580
aVJJ
p581
a(g580
g581
tp582
a(g580
g581
tp583
a(g580
g581
tp584
a(g580
g581
tp585
a(g580
g581
tp586
a(g580
g581
tp587
a(g580
g581
tp588
assVwant
p589
(dp590
g10
(lp591
Vwanted
p592
aVVBD
p593
a(g592
g593
tp594
a(g592
g593
tp595
assVkeep
p596
(dp597
g10
(lp598
Vkept
p599
aVVBN
p600
a(g599
g600
tp601
a(g599
g600
tp602
assVspecies
p603
(dp604
g10
(lp605
g603
aVNN
p606
a(g603
g606
tp607
a(g603
g606
tp608
a(g603
g606
tp609
a(g603
g606
tp610
a(g603
g606
tp611
a(Vspecies
p612
VNNS
p613
tp614
a(Vspecies
p615
VNNS
p616
tp617
a(g615
g616
tp618
assVinformation
p619
(dp620
g10
(lp621
g619
aVNN
p622
a(g619
g622
tp623
assVmeans
p624
(dp625
g10
(lp626
g624
aVNNS
p627
a(g624
g627
tp628
assVfeature
p629
(dp630
g10
(lp631
Vfeatures
p632
aVNNS
p633
a(g632
g633
tp634
a(g632
g633
tp635
a(g632
g633
tp636
a(Vfeature
p637
VNN
p638
tp639
a(g637
g638
tp640
a(g637
g638
tp641
a(Vfeatures
p642
VNNS
p643
tp644
a(g642
g643
tp645
assVoffspring
p646
(dp647
g10
(lp648
g646
aVNN
p649
a(g646
g649
tp650
a(g646
g649
tp651
assV1
p652
(dp653
sVemotionless
p654
(dp655
g10
(lp656
g654
aVJJ
p657
a(g654
g657
tp658
a(g654
g657
tp659
assVft
p660
(dp661
g10
(lp662
g660
aVNN
p663
assVdescription
p664
(dp665
g10
(lp666
Vdescriptions
p667
aVNNS
p668
a(g667
g668
tp669
a(g667
g668
tp670
a(g667
g668
tp671
assVmay
p672
(dp673
sVclone
p674
(dp675
g10
(lp676
Vcloned
p677
aVVBN
p678
a(g677
g678
tp679
a(g677
g678
tp680
assVperceive
p681
(dp682
g10
(lp683
g681
aVVB
p684
a(Vperceive
p685
VVB
p686
tp687
a(g685
g686
tp688
a(g685
g686
tp689
a(g685
g686
tp690
a(g681
g684
tp691
a(g681
g684
tp692
a(g681
g684
tp693
assVresponse
p694
(dp695
sVa
p696
(dp697
sVshort
p698
(dp699
g10
(lp700
Vshortest
p701
aVJJS
p702
a(g701
g702
tp703
a(g701
g702
tp704
a(g701
g702
tp705
a(g701
g702
tp706
a(g701
g702
tp707
assVappreciate
p708
(dp709
g10
(lp710
g708
aVVB
p711
a(g708
g711
tp712
a(g708
g711
tp713
assVso
p714
(dp715
sVallow
p716
(dp717
g10
(lp718
g716
aVVBP
p719
a(g716
g719
tp720
a(g716
g719
tp721
assVenter
p722
(dp723
g10
(lp724
g722
aVVB
p725
a(g722
g725
tp726
a(g722
g725
tp727
a(g722
g725
tp728
assVtall
p729
(dp730
g10
(lp731
g729
aVJJ
p732
a(g729
g732
tp733
a(g729
g732
tp734
a(g729
g732
tp735
a(g729
g732
tp736
a(Vtall
p737
VJJ
p738
tp739
a(g737
g738
tp740
a(g737
g738
tp741
assVorder
p742
(dp743
sVfeedback
p744
(dp745
g10
(lp746
g744
aVNN
p747
a(g744
g747
tp748
assVover
p749
(dp750
sVyears
p751
(dp752
g10
(lp753
g751
aVNNS
p754
assVbrain
p755
(dp756
g10
(lp757
g755
aVNN
p758
a(g755
g758
tp759
a(g755
g758
tp760
a(g755
g758
tp761
assVthrough
p762
(dp763
sVstill
p764
(dp765
sVle
p766
(dp767
sVpersonal
p768
(dp769
sVrecreational
p770
(dp771
sVactually
p772
(dp773
sVbetter
p774
(dp775
g10
(lp776
g774
aVJJR
p777
a(g774
g777
tp778
a(g774
g777
tp779
a(g774
g777
tp780
assVorange
p781
(dp782
sVmain
p783
(dp784
sVmight
p785
(dp786
sVthem
p787
(dp788
sVreturn
p789
(dp790
g10
(lp791
g789
aVNN
p792
a(g789
g792
tp793
assVplanetoid
p794
(dp795
g10
(lp796
g794
aVJJ
p797
a(g794
g797
tp798
a(g794
g797
tp799
a(g794
g797
tp800
a(g794
g797
tp801
a(g794
g797
tp802
assVdove-like
p803
(dp804
g10
(lp805
g803
aVJJ
p806
assVthey
p807
(dp808
sVhands
p809
(dp810
g10
(lp811
g809
aVNNS
p812
assVnot
p813
(dp814
g10
(lp815
Vnot
p816
aVRB
p817
assVnow
p818
(dp819
sVmasters
p820
(dp821
g10
(lp822
g820
aVNNS
p823
a(g820
g823
tp824
assVservant
p825
(dp826
g10
(lp827
Vservants
p828
aVJJ
p829
a(g828
g829
tp830
a(g828
g829
tp831
a(g828
g829
tp832
a(g828
g829
tp833
a(g828
g829
tp834
a(g828
g829
tp835
a(Vservants
p836
VNNS
p837
tp838
assVmode
p839
(dp840
g10
(lp841
g839
aVNN
p842
a(g839
g842
tp843
a(g839
g842
tp844
assVeach
p845
(dp846
sVfound
p847
(dp848
g10
(lp849
g847
aVVBN
p850
assVevolve
p851
(dp852
g10
(lp853
Vevolved
p854
aVVBN
p855
a(g854
g855
tp856
a(g854
g855
tp857
a(g854
g855
tp858
a(g854
g855
tp859
a(Vevolved
p860
VJJ
p861
tp862
assVhouse
p863
(dp864
g10
(lp865
g863
aVNN
p866
a(g863
g866
tp867
assVexpect
p868
(dp869
g10
(lp870
g868
aVVB
p871
a(g868
g871
tp872
assVokay
p873
(dp874
sVbeyond
p875
(dp876
sVextract
p877
(dp878
sVadequately
p879
(dp880
sVtry
p881
(dp882
g10
(lp883
Vtrying
p884
aVVBG
p885
a(g884
g885
tp886
a(g884
g885
tp887
a(g884
g885
tp888
a(g884
g885
tp889
a(Vtrying
p890
VVBG
p891
tp892
a(g890
g891
tp893
a(g890
g891
tp894
a(Vtrying
p895
VVBG
p896
tp897
a(g895
g896
tp898
assVsince
p899
(dp900
sV7
p901
(dp902
sVmillion
p903
(dp904
g10
(lp905
g903
aVCD
p906
a(g903
g906
tp907
a(g903
g906
tp908
assVlittle
p909
(dp910
g10
(lp911
g909
aVJJ
p912
assVstandard
p913
(dp914
g10
(lp915
Vstandards
p916
aVNNS
p917
a(g916
g917
tp918
assVreason
p919
(dp920
g10
(lp921
g919
aVNN
p922
assVbase
p923
(dp924
g10
(lp925
Vbased
p926
aVVBN
p927
a(g926
g927
tp928
a(g926
g927
tp929
a(g926
g927
tp930
a(Vbases
p931
VNNS
p932
tp933
a(g931
g932
tp934
a(g931
g932
tp935
a(Vbases
p936
VNNS
p937
tp938
a(Vbases
p939
VNNS
p940
tp941
a(g939
g940
tp942
a(Vbase
p943
VNN
p944
tp945
a(g943
g944
tp946
a(g943
g944
tp947
a(g943
g944
tp948
a(g943
g944
tp949
a(g943
g944
tp950
a(g943
g944
tp951
assVlizard-folk
p952
(dp953
g10
(lp954
g952
aVNN
p955
a(g952
g955
tp956
assVdisposition
p957
(dp958
g10
(lp959
g957
aVNN
p960
a(g957
g960
tp961
a(g957
g960
tp962
a(g957
g960
tp963
a(g957
g960
tp964
assVput
p965
(dp966
g10
(lp967
g965
aVVBN
p968
assVcare
p969
(dp970
g10
(lp971
g969
aVVB
p972
a(g969
g972
tp973
a(g969
g972
tp974
assVadvance
p975
(dp976
g10
(lp977
Vadvanced
p978
aVJJ
p979
a(g978
g979
tp980
a(g978
g979
tp981
a(g978
g979
tp982
a(g978
g979
tp983
a(g978
g979
tp984
assVhostile
p985
(dp986
g10
(lp987
Vhostile
p988
aVJJ
p989
a(g988
g989
tp990
a(g988
g989
tp991
a(g988
g989
tp992
a(g988
g989
tp993
assVcould
p994
(dp995
sVdavid
p996
(dp997
sVft.
p998
(dp999
g10
(lp1000
g998
aVVBD
p1001
a(g998
g1001
tp1002
a(g998
g1001
tp1003
a(g998
g1001
tp1004
a(Vft.
p1005
VNN
p1006
tp1007
a(g1005
g1006
tp1008
a(g998
g1001
tp1009
a(Vft.
p1010
VNN
p1011
tp1012
assVone
p1013
(dp1014
g10
(lp1015
Vones
p1016
aVNNS
p1017
a(g1016
g1017
tp1018
assVspiritually
p1019
(dp1020
g10
(lp1021
g1019
aVJJ
p1022
a(g1019
g1022
tp1023
assVanother
p1024
(dp1025
g10
(lp1026
g1024
aVDT
p1027
a(g1024
g1027
tp1028
a(g1024
g1027
tp1029
a(g1024
g1027
tp1030
assVgiven
p1031
(dp1032
g10
(lp1033
g1031
aVVBN
p1034
a(g1031
g1034
tp1035
a(g1031
g1034
tp1036
a(g1031
g1034
tp1037
a(g1031
g1034
tp1038
a(g1031
g1034
tp1039
assVancient
p1040
(dp1041
sVinteract
p1042
(dp1043
g10
(lp1044
g1042
aVNN
p1045
assVbreed
p1046
(dp1047
g10
(lp1048
Vbreed
p1049
aVNN
p1050
a(g1049
g1050
tp1051
assVsystem
p1052
(dp1053
g10
(lp1054
g1052
aVNN
p1055
a(g1052
g1055
tp1056
a(Vsystems
p1057
VNNS
p1058
tp1059
a(g1057
g1058
tp1060
a(g1057
g1058
tp1061
a(g1057
g1058
tp1062
a(Vsystems
p1063
VNNS
p1064
tp1065
a(Vsystem
p1066
VNN
p1067
tp1068
a(g1066
g1067
tp1069
a(g1066
g1067
tp1070
a(g1066
g1067
tp1071
a(Vsystem
p1072
VNN
p1073
tp1074
a(g1072
g1073
tp1075
assVbusiness-like
p1076
(dp1077
sVanyone
p1078
(dp1079
g10
(lp1080
g1078
aVNN
p1081
a(g1078
g1081
tp1082
assVtheir
p1083
(dp1084
sV2
p1085
(dp1086
sVmaster
p1087
(dp1088
sValeutian
p1089
(dp1090
sVeyes
p1091
(dp1092
g10
(lp1093
g1091
aVNNS
p1094
a(g1091
g1094
tp1095
assVthat
p1096
(dp1097
sVserve
p1098
(dp1099
g10
(lp1100
Vserved
p1101
aVVBN
p1102
a(g1101
g1102
tp1103
a(g1101
g1102
tp1104
a(Vserve
p1105
VVBP
p1106
tp1107
a(g1105
g1106
tp1108
assVpart
p1109
(dp1110
g10
(lp1111
g1109
aVNN
p1112
a(Vpart
p1113
VNN
p1114
tp1115
a(g1113
g1114
tp1116
a(g1113
g1114
tp1117
assVsomewhat
p1118
(dp1119
sVbelieve
p1120
(dp1121
g10
(lp1122
g1120
aVVBP
p1123
a(g1120
g1123
tp1124
a(g1120
g1123
tp1125
assVthan
p1126
(dp1127
sVrebuff
p1128
(dp1129
g10
(lp1130
Vrebuffed
p1131
aVVBN
p1132
a(g1131
g1132
tp1133
a(g1131
g1132
tp1134
a(g1131
g1132
tp1135
a(g1131
g1132
tp1136
a(g1131
g1132
tp1137
a(g1131
g1132
tp1138
assVkind
p1139
(dp1140
g10
(lp1141
g1139
aVNN
p1142
a(g1139
g1142
tp1143
assV12
p1144
(dp1145
sVdiplomatic
p1146
(dp1147
g10
(lp1148
g1146
aVJJ
p1149
assVgrey
p1150
(dp1151
g10
(lp1152
Vgreys
p1153
aVNNS
p1154
a(Vgreys
p1155
VNNS
p1156
tp1157
a(Vgreys
p1158
VNNS
p1159
tp1160
a(g1158
g1159
tp1161
a(Vgrey
p1162
VNN
p1163
tp1164
a(Vgreys
p1165
VNNS
p1166
tp1167
a(Vgreys
p1168
VNNS
p1169
tp1170
a(Vgreys
p1171
VNNS
p1172
tp1173
a(Vgreys
p1174
VNNS
p1175
tp1176
a(g1174
g1175
tp1177
a(Vgreys
p1178
VVBZ
p1179
tp1180
a(Vgrey
p1181
VVB
p1182
tp1183
a(g1181
g1182
tp1184
a(g1181
g1182
tp1185
a(g1178
g1179
tp1186
a(Vgreys
p1187
VNNS
p1188
tp1189
a(Vgreys
p1190
VNNS
p1191
tp1192
a(Vgreys
p1193
VNNS
p1194
tp1195
a(Vgreys
p1196
VNNS
p1197
tp1198
a(g1196
g1197
tp1199
a(Vgreys
p1200
VVBZ
p1201
tp1202
a(g1200
g1201
tp1203
a(g1200
g1201
tp1204
a(Vgreys
p1205
VNNS
p1206
tp1207
a(Vgreys
p1208
VNNS
p1209
tp1210
a(g1208
g1209
tp1211
a(Vgreys
p1212
VNNS
p1213
tp1214
a(g1212
g1213
tp1215
a(g1212
g1213
tp1216
a(Vgreys
p1217
VNNS
p1218
tp1219
a(g1217
g1218
tp1220
a(Vgreys
p1221
VNNS
p1222
tp1223
assVmatter
p1224
(dp1225
g10
(lp1226
g1224
aVNN
p1227
a(g1224
g1227
tp1228
assVfuture
p1229
(dp1230
sVfeeling
p1231
(dp1232
g10
(lp1233
g1231
aVNN
p1234
a(g1231
g1234
tp1235
a(g1231
g1234
tp1236
assVrussia
p1237
(dp1238
g10
(lp1239
g1237
aVNN
p1240
a(g1237
g1240
tp1241
assVcloning
p1242
(dp1243
g10
(lp1244
g1242
aVNN
p1245
a(Vcloning
p1246
VNN
p1247
tp1248
a(g1246
g1247
tp1249
a(g1246
g1247
tp1250
assVand
p1251
(dp1252
sVmanner
p1253
(dp1254
g10
(lp1255
g1253
aVNN
p1256
a(g1253
g1256
tp1257
a(g1253
g1256
tp1258
assVhave
p1259
(dp1260
g10
(lp1261
Vhad
p1262
aVVBN
p1263
a(g1262
g1263
tp1264
a(g1262
g1263
tp1265
a(g1262
g1263
tp1266
a(g1262
g1263
tp1267
a(Vhave
p1268
VVBP
p1269
tp1270
a(g1268
g1269
tp1271
a(g1268
g1269
tp1272
a(g1268
g1269
tp1273
a(Vhave
p1274
VVBP
p1275
tp1276
a(g1274
g1275
tp1277
a(g1274
g1275
tp1278
a(g1274
g1275
tp1279
a(Vhave
p1280
VVB
p1281
tp1282
a(g1280
g1281
tp1283
a(Vhave
p1284
VVBP
p1285
tp1286
a(g1284
g1285
tp1287
a(g1284
g1285
tp1288
a(Vhave
p1289
VVB
p1290
tp1291
a(g1289
g1290
tp1292
a(g1289
g1290
tp1293
a(Vhave
p1294
VVBP
p1295
tp1296
a(g1294
g1295
tp1297
a(g1294
g1295
tp1298
a(g1294
g1295
tp1299
assVneed
p1300
(dp1301
g10
(lp1302
g1300
aVNN
p1303
a(g1300
g1303
tp1304
a(g1300
g1303
tp1305
a(Vneed
p1306
VVBP
p1307
tp1308
a(g1306
g1307
tp1309
a(g1306
g1307
tp1310
assVseem
p1311
(dp1312
g10
(lp1313
Vseems
p1314
aVVBZ
p1315
a(g1314
g1315
tp1316
a(Vseem
p1317
VVBP
p1318
tp1319
a(g1317
g1318
tp1320
a(Vseem
p1321
VVBP
p1322
tp1323
a(g1321
g1322
tp1324
a(g1321
g1322
tp1325
a(g1321
g1322
tp1326
a(Vseem
p1327
VVBP
p1328
tp1329
a(g1327
g1328
tp1330
a(Vseems
p1331
VVBZ
p1332
tp1333
a(g1331
g1332
tp1334
a(g1331
g1332
tp1335
assVapparently
p1336
(dp1337
sVany
p1338
(dp1339
sVaffairs
p1340
(dp1341
g10
(lp1342
g1340
aVNNS
p1343
assVgenuine
p1344
(dp1345
sVable
p1346
(dp1347
g10
(lp1348
g1346
aVJJ
p1349
a(g1346
g1349
tp1350
a(g1346
g1349
tp1351
a(Vable
p1352
VJJ
p1353
tp1354
a(g1352
g1353
tp1355
assVmid
p1356
(dp1357
sVmix
p1358
(dp1359
sVtake
p1360
(dp1361
g10
(lp1362
g1360
aVVB
p1363
a(g1360
g1363
tp1364
a(g1360
g1363
tp1365
a(Vtaken
p1366
VVBN
p1367
tp1368
a(g1366
g1367
tp1369
a(g1366
g1367
tp1370
a(g1366
g1367
tp1371
assVwhich
p1372
(dp1373
sVblunt
p1374
(dp1375
sVsirius
p1376
(dp1377
g10
(lp1378
g1376
aVNNS
p1379
a(g1376
g1379
tp1380
a(g1376
g1379
tp1381
a(g1376
g1379
tp1382
a(g1376
g1379
tp1383
assVaccuracy
p1384
(dp1385
g10
(lp1386
g1384
aVNN
p1387
a(g1384
g1387
tp1388
a(g1384
g1387
tp1389
assVplay
p1390
(dp1391
g10
(lp1392
g1390
aVVB
p1393
a(g1390
g1393
tp1394
a(g1390
g1393
tp1395
assVtowards
p1396
(dp1397
sVnormal
p1398
(dp1399
sVwho
p1400
(dp1401
sVmost
p1402
(dp1403
sVdigestive
p1404
(dp1405
sVmouth
p1406
(dp1407
g10
(lp1408
g1406
aVNN
p1409
assVsuccessive
p1410
(dp1411
sVclass
p1412
(dp1413
g10
(lp1414
Vclasses
p1415
aVNNS
p1416
a(g1415
g1416
tp1417
a(g1415
g1416
tp1418
a(g1415
g1416
tp1419
a(g1415
g1416
tp1420
a(Vclass
p1421
VNN
p1422
tp1423
a(g1421
g1422
tp1424
a(g1421
g1422
tp1425
a(g1421
g1422
tp1426
a(g1421
g1422
tp1427
assVgreyish
p1428
(dp1429
sVdrive
p1430
(dp1431
sVnormally
p1432
(dp1433
sVearth
p1434
(dp1435
g10
(lp1436
g1434
aVNN
p1437
a(g1434
g1437
tp1438
a(Vearth
p1439
VNN
p1440
tp1441
a(g1439
g1440
tp1442
a(Vearth
p1443
VNN
p1444
tp1445
a(g1443
g1444
tp1446
a(g1443
g1444
tp1447
a(Vearth
p1448
VNN
p1449
tp1450
a(Vearth
p1451
VNN
p1452
tp1453
a(g1451
g1452
tp1454
a(g1451
g1452
tp1455
a(Vearth
p1456
VNN
p1457
tp1458
assVfear
p1459
(dp1460
g10
(lp1461
g1459
aVNN
p1462
a(g1459
g1462
tp1463
a(g1459
g1462
tp1464
a(g1459
g1462
tp1465
a(g1459
g1462
tp1466
assVnevada
p1467
(dp1468
sVfind
p1469
(dp1470
g10
(lp1471
g1469
aVVB
p1472
a(g1469
g1472
tp1473
a(Vfind
p1474
VVB
p1475
tp1476
a(g1474
g1475
tp1477
a(g1474
g1475
tp1478
a(Vfind
p1479
VVB
p1480
tp1481
a(g1479
g1480
tp1482
a(g1479
g1480
tp1483
assVhelp
p1484
(dp1485
g10
(lp1486
g1484
aVNN
p1487
a(g1484
g1487
tp1488
a(Vhelp
p1489
VNN
p1490
tp1491
a(g1489
g1490
tp1492
a(g1489
g1490
tp1493
a(g1489
g1490
tp1494
assVcopy
p1495
(dp1496
g10
(lp1497
g1495
aVNN
p1498
a(g1495
g1498
tp1499
assVeither
p1500
(dp1501
g10
(lp1502
g1500
aVDT
p1503
assVbernard
p1504
(dp1505
sVonly
p1506
(dp1507
sVblack
p1508
(dp1509
sV8
p1510
(dp1511
g10
(lp1512
g1510
aVCD
p1513
a(g1510
g1513
tp1514
a(g1510
g1513
tp1515
assVinhabit
p1516
(dp1517
g10
(lp1518
Vinhabited
p1519
aVVBN
p1520
assVinferior
p1521
(dp1522
g10
(lp1523
g1521
aVJJ
p1524
assVdo
p1525
(dp1526
sVmixture
p1527
(dp1528
sVget
p1529
(dp1530
g10
(lp1531
g1529
aVVB
p1532
a(g1529
g1532
tp1533
a(g1529
g1532
tp1534
a(g1529
g1532
tp1535
a(g1529
g1532
tp1536
assVexpress
p1537
(dp1538
g10
(lp1539
g1537
aVVB
p1540
a(g1537
g1540
tp1541
assVfluid
p1542
(dp1543
g10
(lp1544
g1542
aVJJ
p1545
assVtruly
p1546
(dp1547
sVb
p1548
(dp1549
g10
(lp1550
g1548
aVNNS
p1551
a(g1548
g1551
tp1552
a(g1548
g1551
tp1553
assVreport
p1554
(dp1555
g10
(lp1556
Vreports
p1557
aVVBZ
p1558
a(g1557
g1558
tp1559
assVduring
p1560
(dp1561
sVentity
p1562
(dp1563
g10
(lp1564
Ventities
p1565
aVNNS
p1566
a(Ventities
p1567
VNNS
p1568
tp1569
assVprime
p1570
(dp1571
sVforefather
p1572
(dp1573
sVcourse
p1574
(dp1575
g10
(lp1576
g1574
aVNN
p1577
a(g1574
g1577
tp1578
a(g1574
g1577
tp1579
assValteration
p1580
(dp1581
g10
(lp1582
g1580
aVNN
p1583
a(g1580
g1583
tp1584
a(g1580
g1583
tp1585
assVdangerous
p1586
(dp1587
sVview
p1588
(dp1589
g10
(lp1590
Vviewed
p1591
aVVBN
p1592
a(g1591
g1592
tp1593
a(g1591
g1592
tp1594
assVarcturus
p1595
(dp1596
g10
(lp1597
g1595
aVNNS
p1598
a(g1595
g1598
tp1599
a(g1595
g1598
tp1600
a(g1595
g1598
tp1601
a(g1595
g1598
tp1602
assVhumans
p1603
(dp1604
g10
(lp1605
g1603
aVNNS
p1606
a(Vhumans
p1607
VNNS
p1608
tp1609
a(Vhumans
p1610
VNNS
p1611
tp1612
a(Vhumans
p1613
VNNS
p1614
tp1615
a(Vhumans
p1616
VNNS
p1617
tp1618
a(g1616
g1617
tp1619
a(Vhumans
p1620
VNNS
p1621
tp1622
a(g1620
g1621
tp1623
a(Vhumans
p1624
VNNS
p1625
tp1626
a(g1624
g1625
tp1627
a(Vhumans
p1628
VNNS
p1629
tp1630
a(Vhumans
p1631
VNNS
p1632
tp1633
a(Vhumans
p1634
VNNS
p1635
tp1636
a(g1634
g1635
tp1637
a(Vhumans
p1638
VNNS
p1639
tp1640
a(g1638
g1639
tp1641
a(Vhumans
p1642
VNNS
p1643
tp1644
a(g1642
g1643
tp1645
a(g1642
g1643
tp1646
a(Vhumans
p1647
VNNS
p1648
tp1649
a(Vhumans
p1650
VNNS
p1651
tp1652
a(g1650
g1651
tp1653
a(g1650
g1651
tp1654
a(Vhumans
p1655
VNNS
p1656
tp1657
a(g1655
g1656
tp1658
a(Vhumans
p1659
VNNS
p1660
tp1661
assVsee
p1662
(dp1663
g10
(lp1664
Vseen
p1665
aVVBN
p1666
a(g1665
g1666
tp1667
a(g1665
g1666
tp1668
a(g1665
g1666
tp1669
a(Vseen
p1670
VVBN
p1671
tp1672
a(g1670
g1671
tp1673
assVindividual
p1674
(dp1675
g10
(lp1676
g1674
aVNN
p1677
a(g1674
g1677
tp1678
assVare
p1679
(dp1680
g10
(lp1681
g1679
aVVBP
p1682
a(g1679
g1682
tp1683
a(g1679
g1682
tp1684
assVcattle
p1685
(dp1686
g10
(lp1687
g1685
aVNNS
p1688
assVbest
p1689
(dp1690
sVconcern
p1691
(dp1692
g10
(lp1693
Vconcerned
p1694
aVVBN
p1695
a(g1694
g1695
tp1696
a(g1694
g1695
tp1697
assVrigidly
p1698
(dp1699
g10
(lp1700
g1698
aVNN
p1701
a(g1698
g1701
tp1702
a(g1698
g1701
tp1703
assVfair-skinned
p1704
(dp1705
g10
(lp1706
g1704
aVVBN
p1707
a(g1704
g1707
tp1708
a(g1704
g1707
tp1709
assVaway
p1710
(dp1711
sVplease
p1712
(dp1713
sVbelow
p1714
(dp1715
sVtend
p1716
(dp1717
g10
(lp1718
g1716
aVVBP
p1719
a(g1716
g1719
tp1720
a(Vtend
p1721
VVBP
p1722
tp1723
a(g1721
g1722
tp1724
a(Vtend
p1725
VVBP
p1726
tp1727
a(g1725
g1726
tp1728
a(Vtend
p1729
VVBP
p1730
tp1731
a(Vtend
p1732
VVBP
p1733
tp1734
a(g1732
g1733
tp1735
assV3
p1736
(dp1737
sVunable
p1738
(dp1739
g10
(lp1740
g1738
aVJJ
p1741
assVhumankind
p1742
(dp1743
g10
(lp1744
g1742
aVNN
p1745
assVcrude
p1746
(dp1747
sVapproach
p1748
(dp1749
g10
(lp1750
g1748
aVNN
p1751
a(g1748
g1751
tp1752
assVarrival
p1753
(dp1754
g10
(lp1755
g1753
aVNN
p1756
a(g1753
g1756
tp1757
assVwe
p1758
(dp1759
sVwa
p1760
(dp1761
sVnature
p1762
(dp1763
g10
(lp1764
g1762
aVNN
p1765
a(g1762
g1765
tp1766
a(Vnature
p1767
VNN
p1768
tp1769
a(g1767
g1768
tp1770
a(g1767
g1768
tp1771
a(g1767
g1768
tp1772
assVweak
p1773
(dp1774
sVcarnivorous
p1775
(dp1776
g10
(lp1777
g1775
aVJJ
p1778
a(g1775
g1778
tp1779
a(g1775
g1778
tp1780
a(Vcarnivorous
p1781
VJJ
p1782
tp1783
a(g1781
g1782
tp1784
a(g1781
g1782
tp1785
a(g1781
g1782
tp1786
assVherd
p1787
(dp1788
g10
(lp1789
g1787
aVNN
p1790
a(g1787
g1790
tp1791
assVc
p1792
(dp1793
g10
(lp1794
g1792
aVNN
p1795
a(g1792
g1795
tp1796
a(g1792
g1795
tp1797
a(g1792
VNN
p1798
tp1799
a(g1792
g1798
tp1800
a(g1792
g1798
tp1801
assVtoward
p1802
(dp1803
sVmany
p1804
(dp1805
sVdrug
p1806
(dp1807
g10
(lp1808
g1806
aVNN
p1809
a(g1806
g1809
tp1810
a(g1806
g1809
tp1811
assVsomewhere
p1812
(dp1813
sVotherwise
p1814
(dp1815
sVcolor
p1816
(dp1817
g10
(lp1818
g1816
aVNN
p1819
assVheight
p1820
(dp1821
g10
(lp1822
g1820
aVNN
p1823
a(Vheight
p1824
VNN
p1825
tp1826
a(g1824
g1825
tp1827
a(g1824
g1825
tp1828
assVzeta
p1829
(dp1830
g10
(lp1831
Vzeta
p1832
aVNN
p1833
a(g1832
g1833
tp1834
a(Vzetas
p1835
VNNS
p1836
tp1837
a(g1835
g1836
tp1838
assVtrust
p1839
(dp1840
g10
(lp1841
Vtrusted
p1842
aVVBN
p1843
a(g1842
g1843
tp1844
a(g1842
g1843
tp1845
a(g1842
g1843
tp1846
assVcivilize
p1847
(dp1848
sVspeak
p1849
(dp1850
g10
(lp1851
g1849
aVVB
p1852
a(g1849
g1852
tp1853
assVcapable
p1854
(dp1855
sVcreate
p1856
(dp1857
g10
(lp1858
g1856
aVVB
p1859
a(g1856
g1859
tp1860
a(g1856
g1859
tp1861
a(Vcreating
p1862
VVBG
p1863
tp1864
a(g1862
g1863
tp1865
assVpolitical
p1866
(dp1867
sVdue
p1868
(dp1869
g10
(lp1870
g1868
aVJJ
p1871
a(g1868
g1871
tp1872
a(g1868
g1871
tp1873
a(g1868
g1871
tp1874
a(g1868
g1871
tp1875
assVgenetic
p1876
(dp1877
sVmuch
p1878
(dp1879
g10
(lp1880
g1878
aVRB
p1881
a(g1878
g1881
tp1882
a(Vmuch
p1883
VRB
p1884
tp1885
assVinterest
p1886
(dp1887
g10
(lp1888
Vinteresting
p1889
aVJJ
p1890
a(g1889
g1890
tp1891
a(Vinteresting
p1892
VJJ
p1893
tp1894
a(g1892
g1893
tp1895
a(g1892
g1893
tp1896
assVdefine
p1897
(dp1898
g10
(lp1899
Vdefined
p1900
aVVBN
p1901
assVlife
p1902
(dp1903
g10
(lp1904
Vlife
p1905
aVNN
p1906
a(Vlives
p1907
VNNS
p1908
tp1909
assVpartly
p1910
(dp1911
sVeastern
p1912
(dp1913
sVthousand
p1914
(dp1915
g10
(lp1916
Vthousands
p1917
aVNNS
p1918
a(g1917
g1918
tp1919
assVelse
p1920
(dp1921
g10
(lp1922
g1920
aVRB
p1923
assV-LSB-
p1924
(dp1925
sVthose
p1926
(dp1927
g10
(lp1928
g1926
aVDT
p1929
a(g1926
g1929
tp1930
assVexception
p1931
(dp1932
g10
(lp1933
g1931
aVNN
p1934
a(g1931
g1934
tp1935
a(g1931
g1934
tp1936
assVthese
p1937
(dp1938
g10
(lp1939
Vthese
p1940
aVDT
p1941
assVappearance
p1942
(dp1943
g10
(lp1944
g1942
aVNN
p1945
a(g1942
g1945
tp1946
a(g1942
g1945
tp1947
a(g1942
g1945
tp1948
a(g1942
g1945
tp1949
a(g1942
g1945
tp1950
a(Vappearance
p1951
VNN
p1952
tp1953
assVas
p1954
(dp1955
sVn't
p1956
(dp1957
sVnear
p1958
(dp1959
sVabrupt
p1960
(dp1961
g10
(lp1962
g1960
aVJJ
p1963
a(g1960
g1963
tp1964
a(g1960
g1963
tp1965
a(g1960
g1963
tp1966
a(g1960
g1963
tp1967
assVbehavior
p1968
(dp1969
g10
(lp1970
g1968
aVNN
p1971
a(g1968
g1971
tp1972
a(g1968
g1971
tp1973
a(g1968
g1971
tp1974
a(g1968
g1971
tp1975
a(Vbehavior
p1976
VNN
p1977
tp1978
assVcountry
p1979
(dp1980
g10
(lp1981
Vcountries
p1982
aVNNS
p1983
a(g1982
g1983
tp1984
a(g1982
g1983
tp1985
assVsituation
p1986
(dp1987
g10
(lp1988
g1986
aVNN
p1989
a(g1986
g1989
tp1990
a(Vsituation
p1991
VNN
p1992
tp1993
a(g1991
g1992
tp1994
a(g1991
g1992
tp1995
assVmexico
p1996
(dp1997
g10
(lp1998
g1996
aVNN
p1999
a(g1996
g1999
tp2000
a(g1996
g1999
tp2001
a(g1996
g1999
tp2002
assVit
p2003
(dp2004
sVsustenance
p2005
(dp2006
g10
(lp2007
g2005
aVNN
p2008
a(g2005
g2008
tp2009
assVin
p2010
(dp2011
g10
(lp2012
Vin
p2013
aVIN
p2014
assVbellatrax
p2015
(dp2016
sVreptilian-type
p2017
(dp2018
sVtechnology
p2019
(dp2020
g10
(lp2021
Vtechnologies
p2022
aVNNS
p2023
assVif
p2024
(dp2025
sVperform
p2026
(dp2027
g10
(lp2028
g2026
aVVB
p2029
a(g2026
g2029
tp2030
assVmake
p2031
(dp2032
g10
(lp2033
g2031
aVVB
p2034
a(g2031
g2034
tp2035
a(g2031
g2034
tp2036
a(g2031
g2034
tp2037
a(g2031
g2034
tp2038
assVcross
p2039
(dp2040
g10
(lp2041
g2039
aVVB
p2042
a(g2039
g2042
tp2043
a(g2039
g2042
tp2044
a(g2039
g2042
tp2045
assVsame
p2046
(dp2047
sV9
p2048
(dp2049
g10
(lp2050
g2048
aVCD
p2051
a(g2048
g2051
tp2052
a(g2048
g2051
tp2053
assVseveral
p2054
(dp2055
sV4.5
p2056
(dp2057
g10
(lp2058
g2056
aVCD
p2059
assVupon
p2060
(dp2061
sVnegotiate
p2062
(dp2063
sVaction
p2064
(dp2065
g10
(lp2066
Vactions
p2067
aVNNS
p2068
a(g2067
g2068
tp2069
a(Vaction
p2070
VNN
p2071
tp2072
assVmilitary
p2073
(dp2074
g10
(lp2075
g2073
aVJJ
p2076
a(g2073
g2076
tp2077
a(g2073
g2076
tp2078
a(g2073
g2076
tp2079
assVtotally
p2080
(dp2081
sVoff
p2082
(dp2083
sVscenario
p2084
(dp2085
g10
(lp2086
g2084
aVNN
p2087
a(g2084
g2087
tp2088
a(g2084
g2087
tp2089
assVlargely
p2090
(dp2091
sVi
p2092
(dp2093
sVno
p2094
(dp2095
sVinsectoidal
p2096
(dp2097
sVwithout
p2098
(dp2099
sVthe
p2100
(dp2101
sVkinship
p2102
(dp2103
g10
(lp2104
g2102
aVNN
p2105
a(g2102
g2105
tp2106
assVjust
p2107
(dp2108
sVbeing
p2109
(dp2110
g10
(lp2111
Vbeings
p2112
aVNNS
p2113
a(g2112
g2113
tp2114
a(g2112
g2113
tp2115
a(Vbeings
p2116
VNNS
p2117
tp2118
a(g2116
g2117
tp2119
assVaccurate
p2120
(dp2121
sVhuman
p2122
(dp2123
g10
(lp2124
Vhuman
p2125
aVNN
p2126
a(g2125
g2126
tp2127
assValso
p2128
(dp2129
sVtreatment
p2130
(dp2131
g10
(lp2132
g2130
aVNN
p2133
a(g2130
g2133
tp2134
a(g2130
g2133
tp2135
assVgrow
p2136
(dp2137
g10
(lp2138
Vgrows
p2139
aVVBZ
p2140
a(g2139
g2140
tp2141
a(g2139
g2140
tp2142
a(g2139
g2140
tp2143
a(g2139
g2140
tp2144
assVshoulder
p2145
(dp2146
g10
(lp2147
g2145
aVNN
p2148
a(g2145
g2148
tp2149
a(g2145
g2148
tp2150
assVaround
p2151
(dp2152
sVread
p2153
(dp2154
g10
(lp2155
g2153
aVVB
p2156
a(g2153
g2156
tp2157
a(g2153
g2156
tp2158
a(g2153
g2156
tp2159
a(Vread
p2160
VVBN
p2161
tp2162
a(g2160
g2161
tp2163
a(g2160
g2161
tp2164
a(Vread
p2165
VVBP
p2166
tp2167
a(g2165
g2166
tp2168
a(g2165
g2166
tp2169
assVreptilian
p2170
(dp2171
g10
(lp2172
Vreptilians
p2173
aVNNS
p2174
a(g2173
g2174
tp2175
a(g2173
g2174
tp2176
a(Vreptilians
p2177
VNNS
p2178
tp2179
a(g2177
g2178
tp2180
assVpossible
p2181
(dp2182
sVknow
p2183
(dp2184
g10
(lp2185
g2183
aVVBP
p2186
a(g2183
g2186
tp2187
a(Vknown
p2188
VJJ
p2189
tp2190
a(Vknown
p2191
VVBN
p2192
tp2193
a(g2191
g2192
tp2194
a(g2191
g2192
tp2195
a(Vknown
p2196
VVBN
p2197
tp2198
a(Vknown
p2199
VVBN
p2200
tp2201
a(g2199
g2200
tp2202
a(g2199
g2200
tp2203
a(Vknown
p2204
VVBN
p2205
tp2206
a(g2204
g2205
tp2207
a(g2204
g2205
tp2208
a(Vknown
p2209
VVBN
p2210
tp2211
a(g2209
g2210
tp2212
a(g2209
g2210
tp2213
a(g2209
g2210
tp2214
assVfacial
p2215
(dp2216
sVworld
p2217
(dp2218
g10
(lp2219
Vworlds
p2220
aVNNS
p2221
a(Vworld
p2222
VNN
p2223
tp2224
a(g2222
g2223
tp2225
assVabduct
p2226
(dp2227
g10
(lp2228
Vabducted
p2229
aVVBN
p2230
a(g2229
g2230
tp2231
a(g2229
g2230
tp2232
a(g2229
g2230
tp2233
a(g2229
g2230
tp2234
a(g2229
g2230
tp2235
a(g2229
g2230
tp2236
a(g2229
g2230
tp2237
assVdesire
p2238
(dp2239
g10
(lp2240
g2238
aVVB
p2241
a(g2238
g2241
tp2242
a(g2238
g2241
tp2243
a(Vdesire
p2244
VVB
p2245
tp2246
a(g2244
g2245
tp2247
a(g2244
g2245
tp2248
assVlike
p2249
(dp2250
sV've
p2251
(dp2252
sVmiraculous
p2253
(dp2254
sVnose
p2255
(dp2256
g10
(lp2257
g2255
aVNN
p2258
a(Vnose
p2259
VNN
p2260
tp2261
a(g2259
g2260
tp2262
a(g2259
g2260
tp2263
a(g2259
g2260
tp2264
assVbecome
p2265
(dp2266
g10
(lp2267
Vbecoming
p2268
aVVBG
p2269
a(g2268
g2269
tp2270
a(g2268
g2269
tp2271
a(g2268
g2269
tp2272
a(g2268
g2269
tp2273
assVoften
p2274
(dp2275
sVdeal
p2276
(dp2277
g10
(lp2278
Vdeals
p2279
aVVBZ
p2280
a(g2279
g2280
tp2281
a(g2279
g2280
tp2282
assVunderstand
p2283
(dp2284
g10
(lp2285
g2283
aVVBP
p2286
a(g2283
g2286
tp2287
assVsome
p2288
(dp2289
g10
(lp2290
g2288
aVDT
p2291
assVhair
p2292
(dp2293
g10
(lp2294
g2292
aVNN
p2295
a(g2292
g2295
tp2296
assV3.5
p2297
(dp2298
g10
(lp2299
g2297
aVCD
p2300
assVhuman-type
p2301
(dp2302
sV's
p2303
(dp2304
g10
(lp2305
V's
p2306
aVNNS
p2307
a(g2306
g2307
tp2308
a(g2306
g2307
tp2309
a(g2306
g2307
tp2310
a(g2306
g2307
tp2311
a(g2306
g2307
tp2312
a(V's
p2313
VNNS
p2314
tp2315
a(g2313
g2314
tp2316
a(g2313
g2314
tp2317
a(g2313
g2314
tp2318
assVblonde
p2319
(dp2320
sVpleiades
p2321
(dp2322
g10
(lp2323
g2321
aVNNS
p2324
a(g2321
g2324
tp2325
a(g2321
g2324
tp2326
a(g2321
g2324
tp2327
a(g2321
g2324
tp2328
a(g2321
g2324
tp2329
assVgenetics
p2330
(dp2331
g10
(lp2332
g2330
aVNNS
p2333
a(Vgenetics
p2334
VNNS
p2335
tp2336
a(g2334
g2335
tp2337
a(Vgenetics
p2338
VNNS
p2339
tp2340
a(g2338
g2339
tp2341
a(Vgenetics
p2342
VNNS
p2343
tp2344
a(g2342
g2343
tp2345
a(Vgenetics
p2346
VNNS
p2347
tp2348
a(g2346
g2347
tp2349
a(g2346
g2347
tp2350
assVfor
p2351
(dp2352
sVreticuli
p2353
(dp2354
g10
(lp2355
g2353
aVNNS
p2356
a(g2353
g2356
tp2357
assVconquering
p2358
(dp2359
sVreticulan
p2360
(dp2361
g10
(lp2362
g2360
aVNN
p2363
a(g2360
g2363
tp2364
a(g2360
g2363
tp2365
assVrefer
p2366
(dp2367
g10
(lp2368
Vreferred
p2369
aVVBN
p2370
a(g2369
g2370
tp2371
a(g2369
g2370
tp2372
a(g2369
g2370
tp2373
a(g2369
g2370
tp2374
a(Vreferred
p2375
VVBN
p2376
tp2377
a(g2375
g2376
tp2378
a(g2375
g2376
tp2379
a(Vreferred
p2380
VVBN
p2381
tp2382
a(g2380
g2381
tp2383
a(g2380
g2381
tp2384
assVbe
p2385
(dp2386
g10
(lp2387
Vis
p2388
aVVBZ
p2389
a(g2388
g2389
tp2390
a(Vis
p2391
VVBZ
p2392
tp2393
a(g2391
g2392
tp2394
a(g2391
g2392
tp2395
a(Vis
p2396
VVBZ
p2397
tp2398
a(g2396
g2397
tp2399
assVpower
p2400
(dp2401
g10
(lp2402
g2400
aVNN
p2403
assVufo
p2404
(dp2405
g10
(lp2406
g2404
aVNN
p2407
a(g2404
g2407
tp2408
a(Vufo
p2409
VNN
p2410
tp2411
assVof
p2412
(dp2413
sVagreement
p2414
(dp2415
g10
(lp2416
Vagreements
p2417
aVNNS
p2418
a(g2417
g2418
tp2419
assVconfrontation
p2420
(dp2421
g10
(lp2422
Vconfrontations
p2423
aVNNS
p2424
assVby
p2425
(dp2426
sVon
p2427
(dp2428
sVabout
p2429
(dp2430
sVfreedom
p2431
(dp2432
g10
(lp2433
g2431
aVNN
p2434
assVneighbor
p2435
(dp2436
g10
(lp2437
Vneighboring
p2438
aVVBZ
p2439
a(g2438
g2439
tp2440
a(g2438
g2439
tp2441
assVor
p2442
(dp2443
sVreptile
p2444
(dp2445
g10
(lp2446
Vreptiles
p2447
aVNNS
p2448
assVown
p2449
(dp2450
sVinto
p2451
(dp2452
sVnegative
p2453
(dp2454
g10
(lp2455
g2453
aVJJ
p2456
a(g2453
g2456
tp2457
a(g2453
g2456
tp2458
assVwrap
p2459
(dp2460
g10
(lp2461
g2459
aVJJ
p2462
assVprepare
p2463
(dp2464
g10
(lp2465
g2463
aVVB
p2466
a(g2463
g2466
tp2467
a(g2463
g2466
tp2468
assVarea
p2469
(dp2470
g10
(lp2471
g2469
aVNN
p2472
a(g2469
g2472
tp2473
a(Varea
p2474
VNN
p2475
tp2476
a(g2474
g2475
tp2477
a(g2474
g2475
tp2478
assVsupport
p2479
(dp2480
g10
(lp2481
g2479
aVVB
p2482
a(g2479
g2482
tp2483
a(g2479
g2482
tp2484
assVthere
p2485
(dp2486
sVlong
p2487
(dp2488
sVway
p2489
(dp2490
g10
(lp2491
g2489
aVNN
p2492
assVviscous
p2493
(dp2494
g10
(lp2495
g2493
aVJJ
p2496
a(g2493
g2496
tp2497
a(g2493
g2496
tp2498
a(g2493
g2496
tp2499
assVfunction
p2500
(dp2501
g10
(lp2502
g2500
aVVBP
p2503
a(g2500
g2503
tp2504
assVhead
p2505
(dp2506
g10
(lp2507
Vheads
p2508
aVNNS
p2509
a(g2508
g2509
tp2510
a(g2508
g2509
tp2511
a(g2508
g2509
tp2512
assVcomplete
p2513
(dp2514
sVform
p2515
(dp2516
g10
(lp2517
Vforms
p2518
aVNNS
p2519
a(g2518
g2519
tp2520
a(g2518
g2519
tp2521
a(g2518
g2519
tp2522
a(g2518
g2519
tp2523
assVoffer
p2524
(dp2525
g10
(lp2526
Voffered
p2527
aVVBN
p2528
a(g2527
g2528
tp2529
a(g2527
g2528
tp2530
a(g2527
g2528
tp2531
assVregard
p2532
(dp2533
g10
(lp2534
g2532
aVNN
p2535
a(g2532
g2535
tp2536
a(g2532
g2535
tp2537
a(Vregards
p2538
VVBG
p2539
tp2540
a(g2538
g2539
tp2541
a(Vregard
p2542
VVBP
p2543
tp2544
a(g2542
g2543
tp2545
a(g2542
g2543
tp2546
a(Vregard
p2547
VNN
p2548
tp2549
assVbut
p2550
(dp2551
sVgain
p2552
(dp2553
g10
(lp2554
g2552
aVVB
p2555
a(g2552
g2555
tp2556
a(g2552
g2555
tp2557
a(Vgaining
p2558
VVBG
p2559
tp2560
a(g2558
g2559
tp2561
a(g2558
g2559
tp2562
assVsolar
p2563
(dp2564
sVwith
p2565
(dp2566
sVoutpost
p2567
(dp2568
g10
(lp2569
g2567
aVNN
p2570
a(g2567
g2570
tp2571
a(g2567
g2570
tp2572
a(g2567
g2570
tp2573
a(g2567
g2570
tp2574
assVreproductive
p2575
(dp2576
sVwish
p2577
(dp2578
g10
(lp2579
g2577
aVVBP
p2580
a(g2577
g2580
tp2581
a(g2577
g2580
tp2582
assVus
p2583
(dp2584
sVplanet
p2585
(dp2586
g10
(lp2587
g2585
aVNN
p2588
a(g2585
g2588
tp2589
a(g2585
g2588
tp2590
a(Vplanet
p2591
VNN
p2592
tp2593
a(g2591
g2592
tp2594
assVcruel
p2595
(dp2596
g10
(lp2597
g2595
aVJJ
p2598
assVemotional
p2599
(dp2600
sVproblem
p2601
(dp2602
g10
(lp2603
Vproblems
p2604
aVNNS
p2605
a(g2604
g2605
tp2606
a(g2604
g2605
tp2607
assVsimilar
p2608
(dp2609
g10
(lp2610
g2608
aVJJ
p2611
a(g2608
g2611
tp2612
a(Vsimilar
p2613
VJJ
p2614
tp2615
a(g2613
g2614
tp2616
a(g2613
g2614
tp2617
a(g2613
g2614
tp2618
a(g2613
g2614
tp2619
a(Vsimilar
p2620
VJJ
p2621
tp2622
a(Vsimilar
p2623
VJJ
p2624
tp2625
a(g2623
g2624
tp2626
a(g2623
g2624
tp2627
a(g2623
g2624
tp2628
assVcertain
p2629
(dp2630
sVinfluence
p2631
(dp2632
g10
(lp2633
Vinfluencing
p2634
aVVBG
p2635
a(g2634
g2635
tp2636
a(Vinfluence
p2637
VVB
p2638
tp2639
a(g2637
g2638
tp2640
a(g2637
g2638
tp2641
assVengineering
p2642
(dp2643
g10
(lp2644
g2642
aVNN
p2645
assVat
p2646
(dp2647
sVour
p2648
(dp2649
sVmover
p2650
(dp2651
g10
(lp2652
Vmovers
p2653
aVNNS
p2654
a(g2653
g2654
tp2655
a(g2653
g2654
tp2656
a(g2653
g2654
tp2657
assVecho
p2658
(dp2659
g10
(lp2660
g2658
aVVBP
p2661
a(Vecho
p2662
VVBP
p2663
tp2664
a(g2662
g2663
tp2665
a(g2662
g2663
tp2666
a(g2658
g2661
tp2667
a(g2658
g2661
tp2668
assVdying
p2669
(dp2670
sVvariety
p2671
(dp2672
g10
(lp2673
g2671
aVNN
p2674
a(g2671
g2674
tp2675
a(g2671
g2674
tp2676
a(Vvarieties
p2677
VNNS
p2678
tp2679
a(g2677
g2678
tp2680
a(g2677
g2678
tp2681
a(g2677
g2678
tp2682
a(g2677
g2678
tp2683
a(Vvariety
p2684
VNN
p2685
tp2686
a(g2684
g2685
tp2687
a(g2684
g2685
tp2688
a(g2684
g2685
tp2689
a(g2684
g2685
tp2690
a(g2684
g2685
tp2691
a(g2684
g2685
tp2692
a(g2684
g2685
tp2693
assVother
p2694
(dp2695
sVyou
p2696
(dp2697
g10
(lp2698
Vyou
p2699
aVPRP
p2700
assVstar
p2701
(dp2702
g10
(lp2703
Vstar
p2704
aVNN
p2705
a(g2704
g2705
tp2706
assV'd
p2707
(dp2708
sVstructure
p2709
(dp2710
g10
(lp2711
g2709
aVNN
p2712
a(g2709
g2712
tp2713
assVago
p2714
(dp2715
g10
(lp2716
g2714
aVRB
p2717
a(g2714
g2717
tp2718
assVhappening
p2719
(dp2720
g10
(lp2721
Vhappenings
p2722
aVNNS
p2723
a(g2722
g2723
tp2724
a(g2722
g2723
tp2725
assVhome
p2726
(dp2727
g10
(lp2728
g2726
aVNN
p2729
a(g2726
g2729
tp2730
assVtime
p2731
(dp2732
g10
(lp2733
g2731
aVNN
p2734
a(g2731
g2734
tp2735
a(Vtime
p2736
VNN
p2737
tp2738
a(g2736
g2737
tp2739
a(Vtime
p2740
VNN
p2741
tp2742
a(g2740
g2741
tp2743
a(g2740
g2741
tp2744
a(Vtime
p2745
VNN
p2746
tp2747
a(g2745
g2746
tp2748
a(Vtime
p2749
VNN
p2750
tp2751
a(g2749
g2750
tp2752
a(g2749
g2750
tp2753
assVserious
p2754
(dp2755
sV-RSB-
p2756
(dp2757
g10
(lp2758
g2756
aVVBZ
p2759
a(g2756
g2759
tp2760
a(g2756
g2759
tp2761
a(g2756
g2759
tp2762
a(g2756
g2759
tp2763
a(g2756
g2759
tp2764
assVabductees
p2765
(dp2766
g10
(lp2767
g2765
aVNNS
p2768
asssS'edge_key_dict_factory'
p2769
c__builtin__
dict
p2770
sS'node_dict_factory'
p2771
g2770
sS'edge_attr_dict_factory'
p2772
g2770
sS'succ'
p2773
(dp2774
g8
(dp2775
g1849
(dp2776
I0
(dp2777
S'rel'
p2778
Vadvcl
p2779
sssg1259
(dp2780
I0
(dp2781
g2778
Vaux
p2782
sssVthey
p2783
(dp2784
I0
(dp2785
g2778
Vnsubj
p2786
sssg629
(dp2787
I0
(dp2788
g2778
Vdobj
p2789
ssssg16
(dp2790
sg18
(dp2791
Vand
p2792
(dp2793
I0
(dp2794
g2778
Vcc
p2795
sssg985
(dp2796
I0
(dp2797
g2778
Vxcomp
p2798
sssVbut
p2799
(dp2800
I0
(dp2801
g2778
Vcc
p2802
sssg1574
(dp2803
I0
(dp2804
g2778
Vdobj
p2805
sssVare
p2806
(dp2807
I0
(dp2808
g2778
Vauxpass
p2809
sssVthey
p2810
(dp2811
I0
(dp2812
g2778
Vnsubj
p2813
sssVearth
p2814
(dp2815
I0
(dp2816
g2778
Vdobj
p2817
sssg764
(dp2818
I0
(dp2819
g2778
Vadvmod
p2820
sssg2567
(dp2821
I0
(dp2822
g2778
Vadvcl
p2823
sssg868
(dp2824
I0
(dp2825
g2778
Vconj
p2826
ssssg36
(dp2827
Vand
p2828
(dp2829
I0
(dp2830
g2778
Vcc
p2831
sssg1839
(dp2832
I0
(dp2833
g2778
Vacl
p2834
sssg2346
(dp2835
I0
(dp2836
g2778
Vnmod
p2837
sssg2301
(dp2838
I0
(dp2839
g2778
Vamod
p2840
sssg1767
(dp2841
I0
(dp2842
g2778
Vnmod
p2843
sssVthese
p2844
(dp2845
I0
(dp2846
g2778
Vnsubj
p2847
ssI1
(dp2848
g2778
Vnsubj
p2849
ssI2
(dp2850
g2778
Vdet
p2851
sssVof
p2852
(dp2853
I0
(dp2854
g2778
Vcase
p2855
sssg1098
(dp2856
I0
(dp2857
g2778
Vacl:relcl
p2858
sssg464
(dp2859
I0
(dp2860
g2778
Vacl:relcl
p2861
sssVto
p2862
(dp2863
I0
(dp2864
g2778
Vcase
p2865
sssg1506
(dp2866
I0
(dp2867
g2778
Vamod
p2868
sssVother
p2869
(dp2870
I0
(dp2871
g2778
Vamod
p2872
sssVare
p2873
(dp2874
I0
(dp2875
g2778
Vcop
p2876
ssI1
(dp2877
g2778
Vcop
p2878
sssVhuman
p2879
(dp2880
I0
(dp2881
g2778
Vamod
p2882
ssI1
(dp2883
g2778
Vamod
p2884
sssVthe
p2885
(dp2886
I0
(dp2887
g2778
Vdet
p2888
ssI1
(dp2889
g2778
Vdet
p2890
sssg2017
(dp2891
I0
(dp2892
g2778
Vamod
p2893
sssVtype
p2894
(dp2895
I0
(dp2896
g2778
Vcompound
p2897
ssI1
(dp2898
g2778
Vdep
p2899
ssI2
(dp2900
g2778
Vcompound
p2901
sssVseem
p2902
(dp2903
I0
(dp2904
g2778
Vconj
p2905
ssssg79
(dp2906
Vand
p2907
(dp2908
I0
(dp2909
g2778
Vcc
p2910
sssg557
(dp2911
I0
(dp2912
g2778
Vconj
p2913
sssg873
(dp2914
I0
(dp2915
g2778
Vdep
p2916
sssg245
(dp2917
I0
(dp2918
g2778
Vnsubj
p2919
sssVvariety
p2920
(dp2921
I0
(dp2922
g2778
Vconj
p2923
ssssg88
(dp2924
sg90
(dp2925
sg92
(dp2926
sg94
(dp2927
sg96
(dp2928
Vgrey
p2929
(dp2930
I0
(dp2931
g2778
Vnmod
p2932
sssVtotally
p2933
(dp2934
I0
(dp2935
g2778
Vadvmod
p2936
sssVare
p2937
(dp2938
I0
(dp2939
g2778
Vcop
p2940
sssVentity
p2941
(dp2942
I0
(dp2943
g2778
Vnsubj
p2944
ssssg103
(dp2945
sg105
(dp2946
g2048
(dp2947
I0
(dp2948
g2778
Vadvcl
p2949
sssg1820
(dp2950
I0
(dp2951
g2778
Vdobj
p2952
ssssg110
(dp2953
Vevolve
p2954
(dp2955
I0
(dp2956
g2778
Vamod
p2957
sssg164
(dp2958
I0
(dp2959
g2778
Vamod
p2960
sssVhighly
p2961
(dp2962
I0
(dp2963
g2778
Vadvmod
p2964
ssssg116
(dp2965
Vthis
p2966
(dp2967
I0
(dp2968
g2778
Vdet
p2969
sssVof
p2970
(dp2971
I0
(dp2972
g2778
Vcase
p2973
ssssg121
(dp2974
sg123
(dp2975
g696
(dp2976
I0
(dp2977
g2778
Vdet
p2978
ssI1
(dp2979
g2778
Vdet
p2980
ssI2
(dp2981
g2778
Vdet
p2982
sssValien
p2983
(dp2984
I0
(dp2985
g2778
Vnmod
p2986
ssI1
(dp2987
g2778
Vnsubj
p2988
sssVsupposedly
p2989
(dp2990
I0
(dp2991
g2778
Vadvmod
p2992
sssg1527
(dp2993
I0
(dp2994
g2778
Vcompound
p2995
sssg1572
(dp2996
I0
(dp2997
g2778
Vcompound
p2998
sssVof
p2999
(dp3000
I0
(dp3001
g2778
Vcase
p3002
sssg2046
(dp3003
I0
(dp3004
g2778
Vamod
p3005
sssg774
(dp3006
I0
(dp3007
g2778
Vacl:relcl
p3008
sssVto
p3009
(dp3010
I0
(dp3011
g2778
Vcase
p3012
sssVas
p3013
(dp3014
I0
(dp3015
g2778
Vcase
p3016
sssg1087
(dp3017
I0
(dp3018
g2778
Vcompound
p3019
sssVare
p3020
(dp3021
I0
(dp3022
g2778
Vcop
p3023
ssI1
(dp3024
g2778
Vcop
p3025
sssg1742
(dp3026
I0
(dp3027
g2778
Vnmod
p3028
sssVthe
p3029
(dp3030
I0
(dp3031
g2778
Vdet
p3032
ssI1
(dp3033
g2778
Vdet
p3034
sssg529
(dp3035
I0
(dp3036
g2778
Vcompound
p3037
sssg1521
(dp3038
I0
(dp3039
g2778
Vamod
p3040
ssssg155
(dp3041
g2031
(dp3042
I0
(dp3043
g2778
Vappos
p3044
ssssg159
(dp3045
Vto
p3046
(dp3047
I0
(dp3048
g2778
Vmark
p3049
sssg1231
(dp3050
I0
(dp3051
g2778
Vdobj
p3052
ssssg164
(dp3053
sg166
(dp3054
Vto
p3055
(dp3056
I0
(dp3057
g2778
Vcase
p3058
sssVearth
p3059
(dp3060
I0
(dp3061
g2778
Vcompound
p3062
ssssg171
(dp3063
g1128
(dp3064
I0
(dp3065
g2778
Vadvcl
p3066
sssVin
p3067
(dp3068
I0
(dp3069
g2778
Vmark
p3070
ssssg176
(dp3071
Vto
p3072
(dp3073
I0
(dp3074
g2778
Vmark
p3075
sssg261
(dp3076
I0
(dp3077
g2778
Vadvmod
p3078
sssVit
p3079
(dp3080
I0
(dp3081
g2778
Vdobj
p3082
ssssg182
(dp3083
sg184
(dp3084
sg186
(dp3085
g1428
(dp3086
I0
(dp3087
g2778
Vdobj
p3088
sssVand
p3089
(dp3090
I0
(dp3091
g2778
Vcc
p3092
sssVthey
p3093
(dp3094
I0
(dp3095
g2778
Vnsubj
p3096
sssVdo
p3097
(dp3098
I0
(dp3099
g2778
Vaux
p3100
sssVthat
p3101
(dp3102
I0
(dp3103
g2778
Vnsubj
p3104
sssg1816
(dp3105
I0
(dp3106
g2778
Vnmod
p3107
sssg1824
(dp3108
I0
(dp3109
g2778
Vnmod
p3110
sssVn't
p3111
(dp3112
I0
(dp3113
g2778
Vneg
p3114
sssVto
p3115
(dp3116
I0
(dp3117
g2778
Vmark
p3118
sssVinvolve
p3119
(dp3120
I0
(dp3121
g2778
Vxcomp
p3122
sssg2253
(dp3123
I0
(dp3124
g2778
Vdobj
p3125
sssVtherefore
p3126
(dp3127
I0
(dp3128
g2778
Vadvmod
p3129
sssg1372
(dp3130
I0
(dp3131
g2778
Vnsubj
p3132
sssg254
(dp3133
I0
(dp3134
g2778
Vxcomp
p3135
sssg1775
(dp3136
I0
(dp3137
g2778
Vxcomp
p3138
sssg1691
(dp3139
I0
(dp3140
g2778
Vadvcl
p3141
sssg2366
(dp3142
I0
(dp3143
g2778
Vconj
p3144
ssssg216
(dp3145
g171
(dp3146
I0
(dp3147
g2778
Vadvcl
p3148
sssVto
p3149
(dp3150
I0
(dp3151
g2778
Vmark
p3152
sssVof
p3153
(dp3154
I0
(dp3155
g2778
Vcase
p3156
sssg166
(dp3157
I0
(dp3158
g2778
Vnmod
p3159
sssVbe
p3160
(dp3161
I0
(dp3162
g2778
Vcop
p3163
ssssg224
(dp3164
Vthe
p3165
(dp3166
I0
(dp3167
g2778
Vdet
p3168
sssg92
(dp3169
I0
(dp3170
g2778
Vamod
p3171
ssssg229
(dp3172
Vto
p3173
(dp3174
I0
(dp3175
g2778
Vmark
p3176
sssg1905
(dp3177
I0
(dp3178
g2778
Vdobj
p3179
sssVcreate
p3180
(dp3181
I0
(dp3182
g2778
Vadvcl
p3183
sssg615
(dp3184
I0
(dp3185
g2778
Vnmod
p3186
ssssg236
(dp3187
sg238
(dp3188
Vof
p3189
(dp3190
I0
(dp3191
g2778
Vcase
p3192
sssVthe
p3193
(dp3194
I0
(dp3195
g2778
Vdet
p3196
sssVhuman
p3197
(dp3198
I0
(dp3199
g2778
Vamod
p3200
sssg2005
(dp3201
I0
(dp3202
g2778
Vnmod
p3203
ssssg245
(dp3204
sg247
(dp3205
g825
(dp3206
I0
(dp3207
g2778
Vccomp
p3208
sssg2385
(dp3209
I0
(dp3210
g2778
Vcop
p3211
sssg273
(dp3212
I0
(dp3213
g2778
Vnmod:poss
p3214
sssVit
p3215
(dp3216
I0
(dp3217
g2778
Vnsubj
p3218
ssssg254
(dp3219
g696
(dp3220
I0
(dp3221
g2778
Vdet
p3222
sssVto
p3223
(dp3224
I0
(dp3225
g2778
Vmark
p3226
sssg2306
(dp3227
I0
(dp3228
g2778
Vnmod
p3229
sssVbe
p3230
(dp3231
I0
(dp3232
g2778
Vcop
p3233
ssssg261
(dp3234
g1078
(dp3235
I0
(dp3236
g2778
Vnmod
p3237
ssssg265
(dp3238
sg267
(dp3239
g238
(dp3240
I0
(dp3241
g2778
Vnmod
p3242
sssg2629
(dp3243
I0
(dp3244
g2778
Vamod
p3245
ssssg273
(dp3246
sg275
(dp3247
Vthe
p3248
(dp3249
I0
(dp3250
g2778
Vdet
p3251
sssVwith
p3252
(dp3253
I0
(dp3254
g2778
Vcase
p3255
sssg2515
(dp3256
I0
(dp3257
g2778
Vnmod
p3258
ssssg281
(dp3259
sg283
(dp3260
g1402
(dp3261
I0
(dp3262
g2778
Vadvmod
p3263
ssssg287
(dp3264
g2054
(dp3265
I0
(dp3266
g2778
Vamod
p3267
ssssg291
(dp3268
Vof
p3269
(dp3270
I0
(dp3271
g2778
Vcase
p3272
sssg265
(dp3273
I0
(dp3274
g2778
Vamod
p3275
sssg1655
(dp3276
I0
(dp3277
g2778
Vnmod
p3278
ssssg297
(dp3279
sg299
(dp3280
sg301
(dp3281
g768
(dp3282
I0
(dp3283
g2778
Vamod
p3284
sssVno
p3285
(dp3286
I0
(dp3287
g2778
Vneg
p3288
ssssg306
(dp3289
g1814
(dp3290
I0
(dp3291
g2778
Vadvmod
p3292
ssssg310
(dp3293
g324
(dp3294
I0
(dp3295
g2778
Vxcomp
p3296
ssssg314
(dp3297
sg316
(dp3298
g2092
(dp3299
I0
(dp3300
g2778
Vnsubj
p3301
sssg863
(dp3302
I0
(dp3303
g2778
Vdep
p3304
sssg1251
(dp3305
I0
(dp3306
g2778
Vcc
p3307
sssg1474
(dp3308
I0
(dp3309
g2778
Vccomp
p3310
sssg2183
(dp3311
I0
(dp3312
g2778
Vconj
p3313
ssssg324
(dp3314
Vand
p3315
(dp3316
I0
(dp3317
g2778
Vcc
p3318
sssg194
(dp3319
I0
(dp3320
g2778
Vconj
p3321
sssg267
(dp3322
I0
(dp3323
g2778
Vdobj
p3324
sssg1976
(dp3325
I0
(dp3326
g2778
Vdobj
p3327
sssVit
p3328
(dp3329
I0
(dp3330
g2778
Vdobj
p3331
sssg1806
(dp3332
I0
(dp3333
g2778
Vnmod
p3334
sssVto
p3335
(dp3336
I0
(dp3337
g2778
Vmark
p3338
ssI1
(dp3339
g2778
Vmark
p3340
sssg2552
(dp3341
I0
(dp3342
g2778
Vadvcl
p3343
sssVthey
p3344
(dp3345
I0
(dp3346
g2778
Vnsubj
p3347
sssVapparently
p3348
(dp3349
I0
(dp3350
g2778
Vadvmod
p3351
sssg514
(dp3352
I0
(dp3353
g2778
Vaux
p3354
ssssg343
(dp3355
sg345
(dp3356
Vto
p3357
(dp3358
I0
(dp3359
g2778
Vmark
p3360
sssg1253
(dp3361
I0
(dp3362
g2778
Vnmod
p3363
ssssg350
(dp3364
sg352
(dp3365
sg354
(dp3366
sg356
(dp3367
g696
(dp3368
I0
(dp3369
g2778
Vdet
p3370
sssg2699
(dp3371
I0
(dp3372
g2778
Vnmod
p3373
ssssg361
(dp3374
Vto
p3375
(dp3376
I0
(dp3377
g2778
Vmark
p3378
ssssg365
(dp3379
sg367
(dp3380
g2015
(dp3381
I0
(dp3382
g2778
Vdobj
p3383
sssVare
p3384
(dp3385
I0
(dp3386
g2778
Vauxpass
p3387
sssVthey
p3388
(dp3389
I0
(dp3390
g2778
Vnsubjpass
p3391
sssg1066
(dp3392
I0
(dp3393
g2778
Vnmod
p3394
ssssg375
(dp3395
sg377
(dp3396
Vspiritual
p3397
(dp3398
I0
(dp3399
g2778
Vamod
p3400
sssg18
(dp3401
I0
(dp3402
g2778
Vdep
p3403
sssVevolve
p3404
(dp3405
I0
(dp3406
g2778
Vamod
p3407
sssValien
p3408
(dp3409
I0
(dp3410
g2778
Vamod
p3411
ssI1
(dp3412
g2778
Vamod
p3413
ssI2
(dp3414
g2778
Vamod
p3415
ssI3
(dp3416
g2778
Vdep
p3417
sssg1662
(dp3418
I0
(dp3419
g2778
Vacl
p3420
sssVare
p3421
(dp3422
I0
(dp3423
g2778
Vcop
p3424
sssVhuman
p3425
(dp3426
I0
(dp3427
g2778
Vdep
p3428
sssg291
(dp3429
I0
(dp3430
g2778
Vnmod
p3431
sssVthan
p3432
(dp3433
I0
(dp3434
g2778
Vcase
p3435
sssg652
(dp3436
I0
(dp3437
g2778
Vnummod
p3438
sssg1736
(dp3439
I0
(dp3440
g2778
Vdep
p3441
sssg1085
(dp3442
I0
(dp3443
g2778
Vdep
p3444
sssg392
(dp3445
I0
(dp3446
g2778
Vdep
p3447
sssg2366
(dp3448
I0
(dp3449
g2778
Vacl
p3450
sssg2385
(dp3451
I0
(dp3452
g2778
Vcop
p3453
sssVreptilian
p3454
(dp3455
I0
(dp3456
g2778
Vdep
p3457
sssVby
p3458
(dp3459
I0
(dp3460
g2778
Vcase
p3461
sssg696
(dp3462
I0
(dp3463
g2778
Vdep
p3464
ssI1
(dp3465
g2778
Vdep
p3466
ssI2
(dp3467
g2778
Vdep
p3468
sssVon
p3469
(dp3470
I0
(dp3471
g2778
Vcase
p3472
sssg1548
(dp3473
I0
(dp3474
g2778
Vdep
p3475
sssVthis
p3476
(dp3477
I0
(dp3478
g2778
Vdet
p3479
ssI1
(dp3480
g2778
Vnsubj
p3481
ssI2
(dp3482
g2778
Vdet
p3483
ssI3
(dp3484
g2778
Vdet
p3485
sssVof
p3486
(dp3487
I0
(dp3488
g2778
Vcase
p3489
ssI1
(dp3490
g2778
Vcase
p3491
sssg1150
(dp3492
I0
(dp3493
g2778
Vdep
p3494
ssI1
(dp3495
g2778
Vadvmod
p3496
ssI2
(dp3497
g2778
Vnmod
p3498
ssI3
(dp3499
g2778
Vamod
p3500
ssI4
(dp3501
g2778
Vdep
p3502
ssI5
(dp3503
g2778
Vdep
p3504
ssI6
(dp3505
g2778
Vdep
p3506
sssVthese
p3507
(dp3508
I0
(dp3509
g2778
Vnsubj
p3510
sssVthe
p3511
(dp3512
I0
(dp3513
g2778
Vdet
p3514
ssI1
(dp3515
g2778
Vdet
p3516
ssI2
(dp3517
g2778
Vdet
p3518
ssI3
(dp3519
g2778
Vdet
p3520
ssssg453
(dp3521
sg455
(dp3522
Vand
p3523
(dp3524
I0
(dp3525
g2778
Vcc
p3526
sssg2385
(dp3527
I0
(dp3528
g2778
Vcop
p3529
sssg1013
(dp3530
I0
(dp3531
g2778
Vnsubj
p3532
sssg1960
(dp3533
I0
(dp3534
g2778
Vconj
p3535
sssVthe
p3536
(dp3537
I0
(dp3538
g2778
Vdet
p3539
sssg453
(dp3540
I0
(dp3541
g2778
Vamod
p3542
ssssg464
(dp3543
Vand
p3544
(dp3545
I0
(dp3546
g2778
Vcc
p3547
sssVconsider
p3548
(dp3549
I0
(dp3550
g2778
Vconj
p3551
sssVthat
p3552
(dp3553
I0
(dp3554
g2778
Vnsubj
p3555
sssVare
p3556
(dp3557
I0
(dp3558
g2778
Vcop
p3559
sssg1991
(dp3560
I0
(dp3561
g2778
Vnmod
p3562
sssVapparently
p3563
(dp3564
I0
(dp3565
g2778
Vadvmod
p3566
ssssg473
(dp3567
Vbe
p3568
(dp3569
I0
(dp3570
g2778
Vauxpass
p3571
sssVgrey
p3572
(dp3573
I0
(dp3574
g2778
Vnmod
p3575
sssVhave
p3576
(dp3577
I0
(dp3578
g2778
Vaux
p3579
ssssg480
(dp3580
sg482
(dp3581
g498
(dp3582
I0
(dp3583
g2778
Vdobj
p3584
sssg2650
(dp3585
I0
(dp3586
g2778
Vxcomp
p3587
sssVthat
p3588
(dp3589
I0
(dp3590
g2778
Vnsubj
p3591
ssssg489
(dp3592
Vto
p3593
(dp3594
I0
(dp3595
g2778
Vcase
p3596
sssVwith
p3597
(dp3598
I0
(dp3599
g2778
Vcase
p3600
ssssg496
(dp3601
sg498
(dp3602
Vand
p3603
(dp3604
I0
(dp3605
g2778
Vcc
p3606
sssg2217
(dp3607
I0
(dp3608
g2778
Vconj
p3609
sssVtheir
p3610
(dp3611
I0
(dp3612
g2778
Vnmod:poss
p3613
ssssg506
(dp3614
sg508
(dp3615
g1242
(dp3616
I0
(dp3617
g2778
Vnmod
p3618
ssssg512
(dp3619
sg514
(dp3620
sg516
(dp3621
Vto
p3622
(dp3623
I0
(dp3624
g2778
Vmark
p3625
sssVthe
p3626
(dp3627
I0
(dp3628
g2778
Vdet
p3629
sssVin
p3630
(dp3631
I0
(dp3632
g2778
Vcase
p3633
sssg1089
(dp3634
I0
(dp3635
g2778
Vcompound
p3636
sssVbe
p3637
(dp3638
I0
(dp3639
g2778
Vcop
p3640
ssssg525
(dp3641
g2444
(dp3642
I0
(dp3643
g2778
Vnmod
p3644
ssssg529
(dp3645
sg531
(dp3646
Vand
p3647
(dp3648
I0
(dp3649
g2778
Vcc
p3650
sssg2513
(dp3651
I0
(dp3652
g2778
Vamod
p3653
sssg1866
(dp3654
I0
(dp3655
g2778
Vamod
p3656
sssg2414
(dp3657
I0
(dp3658
g2778
Vconj
p3659
sssg2585
(dp3660
I0
(dp3661
g2778
Vnmod
p3662
sssVthrough
p3663
(dp3664
I0
(dp3665
g2778
Vcase
p3666
sssg1439
(dp3667
I0
(dp3668
g2778
Vnmod
p3669
ssssg546
(dp3670
g2094
(dp3671
I0
(dp3672
g2778
Vneg
p3673
ssssg551
(dp3674
g493
(dp3675
I0
(dp3676
g2778
Vnmod
p3677
sssVto
p3678
(dp3679
I0
(dp3680
g2778
Vmark
p3681
sssg2577
(dp3682
I0
(dp3683
g2778
Vadvcl
p3684
ssssg557
(dp3685
Vbe
p3686
(dp3687
I0
(dp3688
g2778
Vauxpass
p3689
sssg88
(dp3690
I0
(dp3691
g2778
Vadvmod
p3692
sssg2719
(dp3693
I0
(dp3694
g2778
Vnmod
p3695
sssg2631
(dp3696
I0
(dp3697
g2778
Vadvcl
p3698
sssVto
p3699
(dp3700
I0
(dp3701
g2778
Vmark
p3702
sssVmuch
p3703
(dp3704
I0
(dp3705
g2778
Vadvmod
p3706
ssssg569
(dp3707
Vof
p3708
(dp3709
I0
(dp3710
g2778
Vcase
p3711
sssVfrom
p3712
(dp3713
I0
(dp3714
g2778
Vcase
p3715
ssssg577
(dp3716
Vand
p3717
(dp3718
I0
(dp3719
g2778
Vcc
p3720
ssI1
(dp3721
g2778
Vcc
p3722
sssg1854
(dp3723
I0
(dp3724
g2778
Vconj
p3725
sssg310
(dp3726
I0
(dp3727
g2778
Vconj
p3728
sssVone
p3729
(dp3730
I0
(dp3731
g2778
Vnsubj
p3732
sssVare
p3733
(dp3734
I0
(dp3735
g2778
Vcop
p3736
sssg1968
(dp3737
I0
(dp3738
g2778
Vnmod
p3739
sssVmore
p3740
(dp3741
I0
(dp3742
g2778
Vadvmod
p3743
ssssg589
(dp3744
g2092
(dp3745
I0
(dp3746
g2778
Vnsubj
p3747
sssVjust
p3748
(dp3749
I0
(dp3750
g2778
Vadvmod
p3751
sssg176
(dp3752
I0
(dp3753
g2778
Vxcomp
p3754
ssssg596
(dp3755
g2385
(dp3756
I0
(dp3757
g2778
Vauxpass
p3758
sssg224
(dp3759
I0
(dp3760
g2778
Vnsubjpass
p3761
sssVif
p3762
(dp3763
I0
(dp3764
g2778
Vmark
p3765
ssssg603
(dp3766
g696
(dp3767
I0
(dp3768
g2778
Vdet
p3769
sssg2669
(dp3770
I0
(dp3771
g2778
Vamod
p3772
sssVthat
p3773
(dp3774
I0
(dp3775
g2778
Vmark
p3776
sssg674
(dp3777
I0
(dp3778
g2778
Vacl:relcl
p3779
sssVtheir
p3780
(dp3781
I0
(dp3782
g2778
Vnmod:poss
p3783
sssVare
p3784
(dp3785
I0
(dp3786
g2778
Vcop
p3787
sssVthey
p3788
(dp3789
I0
(dp3790
g2778
Vnsubj
p3791
sssVthe
p3792
(dp3793
I0
(dp3794
g2778
Vdet
p3795
sssg2451
(dp3796
I0
(dp3797
g2778
Vcase
p3798
ssssg619
(dp3799
g1954
(dp3800
I0
(dp3801
g2778
Vcase
p3802
sssg2120
(dp3803
I0
(dp3804
g2778
Vamod
p3805
ssssg624
(dp3806
g1804
(dp3807
I0
(dp3808
g2778
Vamod
p3809
sssg762
(dp3810
I0
(dp3811
g2778
Vcase
p3812
ssssg629
(dp3813
Vand
p3814
(dp3815
I0
(dp3816
g2778
Vcc
p3817
sssg2608
(dp3818
I0
(dp3819
g2778
Vamod
p3820
sssVtheir
p3821
(dp3822
I0
(dp3823
g2778
Vnmod:poss
p3824
sssg1406
(dp3825
I0
(dp3826
g2778
Vconj
p3827
sssg2255
(dp3828
I0
(dp3829
g2778
Vconj
p3830
sssg2215
(dp3831
I0
(dp3832
g2778
Vamod
p3833
ssI1
(dp3834
g2778
Vamod
p3835
ssI2
(dp3836
g2778
Vamod
p3837
sssVwith
p3838
(dp3839
I0
(dp3840
g2778
Vcase
p3841
ssssg646
(dp3842
Vthe
p3843
(dp3844
I0
(dp3845
g2778
Vdet
p3846
sssg2765
(dp3847
I0
(dp3848
g2778
Vnmod
p3849
sssVare
p3850
(dp3851
I0
(dp3852
g2778
Vcop
p3853
ssssg652
(dp3854
sg654
(dp3855
Vto
p3856
(dp3857
I0
(dp3858
g2778
Vmark
p3859
sssg913
(dp3860
I0
(dp3861
g2778
Vdep
p3862
sssVbe
p3863
(dp3864
I0
(dp3865
g2778
Vcop
p3866
ssssg660
(dp3867
g2056
(dp3868
I0
(dp3869
g2778
Vnummod
p3870
ssssg664
(dp3871
g36
(dp3872
I0
(dp3873
g2778
Vamod
p3874
sssVof
p3875
(dp3876
I0
(dp3877
g2778
Vcase
p3878
sssg965
(dp3879
I0
(dp3880
g2778
Vacl
p3881
sssg2109
(dp3882
I0
(dp3883
g2778
Vcompound
p3884
ssssg672
(dp3885
sg674
(dp3886
g1878
(dp3887
I0
(dp3888
g2778
Vadvmod
p3889
sssVhave
p3890
(dp3891
I0
(dp3892
g2778
Vaux
p3893
sssVthat
p3894
(dp3895
I0
(dp3896
g2778
Vnsubj
p3897
ssssg681
(dp3898
g1758
(dp3899
I0
(dp3900
g2778
Vnsubj
p3901
sssVwould
p3902
(dp3903
I0
(dp3904
g2778
Vaux
p3905
ssI1
(dp3906
g2778
Vaux
p3907
sssg685
(dp3908
I0
(dp3909
g2778
Vdep
p3910
sssg2583
(dp3911
I0
(dp3912
g2778
Vdobj
p3913
sssg1787
(dp3914
I0
(dp3915
g2778
Vdobj
p3916
sssg1883
(dp3917
I0
(dp3918
g2778
Vadvmod
p3919
sssVthey
p3920
(dp3921
I0
(dp3922
g2778
Vnsubj
p3923
ssssg694
(dp3924
sg696
(dp3925
sg698
(dp3926
Vand
p3927
(dp3928
I0
(dp3929
g2778
Vcc
p3930
sssVthese
p3931
(dp3932
I0
(dp3933
g2778
Vnsubj
p3934
sssVgrey
p3935
(dp3936
I0
(dp3937
g2778
Vnmod
p3938
sssg1729
(dp3939
I0
(dp3940
g2778
Vconj
p3941
sssVare
p3942
(dp3943
I0
(dp3944
g2778
Vcop
p3945
sssVthe
p3946
(dp3947
I0
(dp3948
g2778
Vdet
p3949
ssssg708
(dp3950
g2092
(dp3951
I0
(dp3952
g2778
Vnsubj
p3953
sssg2707
(dp3954
I0
(dp3955
g2778
Vaux
p3956
sssg744
(dp3957
I0
(dp3958
g2778
Vdobj
p3959
ssssg714
(dp3960
sg716
(dp3961
g2026
(dp3962
I0
(dp3963
g2778
Vxcomp
p3964
sssg787
(dp3965
I0
(dp3966
g2778
Vdobj
p3967
sssVthat
p3968
(dp3969
I0
(dp3970
g2778
Vnsubj
p3971
ssssg722
(dp3972
Vto
p3973
(dp3974
I0
(dp3975
g2778
Vmark
p3976
sssg2313
(dp3977
I0
(dp3978
g2778
Vnmod
p3979
sssg1072
(dp3980
I0
(dp3981
g2778
Vdobj
p3982
sssg596
(dp3983
I0
(dp3984
g2778
Vadvcl
p3985
ssssg729
(dp3986
Vbe
p3987
(dp3988
I0
(dp3989
g2778
Vcop
p3990
sssg2505
(dp3991
I0
(dp3992
g2778
Vnmod
p3993
sssg660
(dp3994
I0
(dp3995
g2778
Vnmod:npmod
p3996
sssVto
p3997
(dp3998
I0
(dp3999
g2778
Vmark
p4000
sssVare
p4001
(dp4002
I0
(dp4003
g2778
Vcop
p4004
sssVthey
p4005
(dp4006
I0
(dp4007
g2778
Vnsubj
p4008
sssg1432
(dp4009
I0
(dp4010
g2778
Vadvmod
p4011
sssg1010
(dp4012
I0
(dp4013
g2778
Vnmod:npmod
p4014
ssssg742
(dp4015
sg744
(dp4016
g1338
(dp4017
I0
(dp4018
g2778
Vdet
p4019
sssg969
(dp4020
I0
(dp4021
g2778
Vacl:relcl
p4022
ssssg749
(dp4023
sg751
(dp4024
Vof
p4025
(dp4026
I0
(dp4027
g2778
Vcase
p4028
ssssg755
(dp4029
Vof
p4030
(dp4031
I0
(dp4032
g2778
Vcase
p4033
sssVthe
p4034
(dp4035
I0
(dp4036
g2778
Vdet
p4037
sssg1459
(dp4038
I0
(dp4039
g2778
Vnmod
p4040
sssVhuman
p4041
(dp4042
I0
(dp4043
g2778
Vamod
p4044
ssssg762
(dp4045
sg764
(dp4046
sg766
(dp4047
sg768
(dp4048
sg770
(dp4049
sg772
(dp4050
sg774
(dp4051
Vbe
p4052
(dp4053
I0
(dp4054
g2778
Vcop
p4055
sssg1500
(dp4056
I0
(dp4057
g2778
Vadvmod
p4058
sssg350
(dp4059
I0
(dp4060
g2778
Vaux
p4061
sssVthat
p4062
(dp4063
I0
(dp4064
g2778
Vnsubj
p4065
ssssg781
(dp4066
sg783
(dp4067
sg785
(dp4068
sg787
(dp4069
sg789
(dp4070
Vtheir
p4071
(dp4072
I0
(dp4073
g2778
Vnmod:poss
p4074
sssg2060
(dp4075
I0
(dp4076
g2778
Vcase
p4077
ssssg794
(dp4078
g696
(dp4079
I0
(dp4080
g2778
Vdet
p4081
sssg2385
(dp4082
I0
(dp4083
g2778
Vacl:relcl
p4084
sssg1430
(dp4085
I0
(dp4086
g2778
Vconj
p4087
sssg365
(dp4088
I0
(dp4089
g2778
Vconj
p4090
sssg1516
(dp4091
I0
(dp4092
g2778
Vacl
p4093
sssVor
p4094
(dp4095
I0
(dp4096
g2778
Vcc
p4097
ssssg803
(dp4098
Vmore
p4099
(dp4100
I0
(dp4101
g2778
Vadvmod
p4102
ssssg807
(dp4103
sg809
(dp4104
Vof
p4105
(dp4106
I0
(dp4107
g2778
Vcase
p4108
ssssg813
(dp4109
g1451
(dp4110
I0
(dp4111
g2778
Vnmod
p4112
ssssg818
(dp4113
sg820
(dp4114
Vtheir
p4115
(dp4116
I0
(dp4117
g2778
Vnmod:poss
p4118
sssVfrom
p4119
(dp4120
I0
(dp4121
g2778
Vcase
p4122
ssssg825
(dp4123
Vand
p4124
(dp4125
I0
(dp4126
g2778
Vcc
p4127
sssVthat
p4128
(dp4129
I0
(dp4130
g2778
Vmark
p4131
sssVgrey
p4132
(dp4133
I0
(dp4134
g2778
Vnsubj
p4135
sssg772
(dp4136
I0
(dp4137
g2778
Vadvmod
p4138
sssVtry
p4139
(dp4140
I0
(dp4141
g2778
Vconj
p4142
sssVas
p4143
(dp4144
I0
(dp4145
g2778
Vcase
p4146
sssg129
(dp4147
I0
(dp4148
g2778
Vnmod
p4149
sssVare
p4150
(dp4151
I0
(dp4152
g2778
Vcop
p4153
ssssg839
(dp4154
g696
(dp4155
I0
(dp4156
g2778
Vdet
p4157
sssg2073
(dp4158
I0
(dp4159
g2778
Vacl:relcl
p4160
sssVin
p4161
(dp4162
I0
(dp4163
g2778
Vcase
p4164
ssssg845
(dp4165
sg847
(dp4166
g410
(dp4167
I0
(dp4168
g2778
Vnmod
p4169
ssssg851
(dp4170
Vand
p4171
(dp4172
I0
(dp4173
g2778
Vcc
p4174
sssVthey
p4175
(dp4176
I0
(dp4177
g2778
Vnsubj
p4178
sssVhighly
p4179
(dp4180
I0
(dp4181
g2778
Vadvmod
p4182
sssg508
(dp4183
I0
(dp4184
g2778
Vconj
p4185
sssVhave
p4186
(dp4187
I0
(dp4188
g2778
Vaux
p4189
sssg1300
(dp4190
I0
(dp4191
g2778
Vnmod
p4192
ssssg863
(dp4193
g2425
(dp4194
I0
(dp4195
g2778
Vcase
p4196
sssg996
(dp4197
I0
(dp4198
g2778
Vamod
p4199
ssssg868
(dp4200
g1289
(dp4201
I0
(dp4202
g2778
Vxcomp
p4203
sssVwould
p4204
(dp4205
I0
(dp4206
g2778
Vaux
p4207
ssssg873
(dp4208
sg875
(dp4209
sg877
(dp4210
sg879
(dp4211
sg881
(dp4212
Vbe
p4213
(dp4214
I0
(dp4215
g2778
Vaux
p4216
sssg2463
(dp4217
I0
(dp4218
g2778
Vxcomp
p4219
sssVthat
p4220
(dp4221
I0
(dp4222
g2778
Vmark
p4223
sssg672
(dp4224
I0
(dp4225
g2778
Vaux
p4226
sssg2039
(dp4227
I0
(dp4228
g2778
Vxcomp
p4229
sssVare
p4230
(dp4231
I0
(dp4232
g2778
Vaux
p4233
ssI1
(dp4234
g2778
Vaux
p4235
sssVthey
p4236
(dp4237
I0
(dp4238
g2778
Vnsubj
p4239
ssI1
(dp4240
g2778
Vnsubj
p4241
sssg229
(dp4242
I0
(dp4243
g2778
Vxcomp
p4244
ssssg899
(dp4245
sg901
(dp4246
sg903
(dp4247
g281
(dp4248
I0
(dp4249
g2778
Vcompound
p4250
sssg952
(dp4251
I0
(dp4252
g2778
Vnmod
p4253
sssVby
p4254
(dp4255
I0
(dp4256
g2778
Vcase
p4257
ssssg909
(dp4258
Vvery
p4259
(dp4260
I0
(dp4261
g2778
Vadvmod
p4262
ssssg913
(dp4263
Vby
p4264
(dp4265
I0
(dp4266
g2778
Vcase
p4267
sssVhuman
p4268
(dp4269
I0
(dp4270
g2778
Vamod
p4271
ssssg919
(dp4272
Vthis
p4273
(dp4274
I0
(dp4275
g2778
Vdet
p4276
ssssg923
(dp4277
g696
(dp4278
I0
(dp4279
g2778
Vdet
p4280
sssg1910
(dp4281
I0
(dp4282
g2778
Vadvmod
p4283
sssg1996
(dp4284
I0
(dp4285
g2778
Vnmod
p4286
sssVthese
p4287
(dp4288
I0
(dp4289
g2778
Vnsubj
p4290
sssg1979
(dp4291
I0
(dp4292
g2778
Vnmod
p4293
sssVtheir
p4294
(dp4295
I0
(dp4296
g2778
Vnmod:poss
p4297
ssI1
(dp4298
g2778
Vnmod:poss
p4299
sssVgenetic
p4300
(dp4301
I0
(dp4302
g2778
Vamod
p4303
sssVare
p4304
(dp4305
I0
(dp4306
g2778
Vauxpass
p4307
ssI1
(dp4308
g2778
Vcop
p4309
sssVof
p4310
(dp4311
I0
(dp4312
g2778
Vcase
p4313
sssg2330
(dp4314
I0
(dp4315
g2778
Vnsubjpass
p4316
ssI1
(dp4317
g2778
Vnmod
p4318
sssVmain
p4319
(dp4320
I0
(dp4321
g2778
Vamod
p4322
sssg434
(dp4323
I0
(dp4324
g2778
Vdep
p4325
sssg2620
(dp4326
I0
(dp4327
g2778
Vamod
p4328
sssVknow
p4329
(dp4330
I0
(dp4331
g2778
Vamod
p4332
ssssg952
(dp4333
Vthese
p4334
(dp4335
I0
(dp4336
g2778
Vdet
p4337
sssVof
p4338
(dp4339
I0
(dp4340
g2778
Vcase
p4341
ssssg957
(dp4342
Vbeing
p4343
(dp4344
I0
(dp4345
g2778
Vcop
p4346
sssVof
p4347
(dp4348
I0
(dp4349
g2778
Vcase
p4350
sssVas
p4351
(dp4352
I0
(dp4353
g2778
Vmark
p4354
sssg696
(dp4355
I0
(dp4356
g2778
Vdet
p4357
sssg2453
(dp4358
I0
(dp4359
g2778
Vamod
p4360
ssssg965
(dp4361
g2404
(dp4362
I0
(dp4363
g2778
Vnmod
p4364
ssssg969
(dp4365
Vyou
p4366
(dp4367
I0
(dp4368
g2778
Vnsubj
p4369
sssV'd
p4370
(dp4371
I0
(dp4372
g2778
Vaux
p4373
sssg551
(dp4374
I0
(dp4375
g2778
Vxcomp
p4376
ssssg975
(dp4377
Vthese
p4378
(dp4379
I0
(dp4380
g2778
Vnsubj
p4381
sssg2542
(dp4382
I0
(dp4383
g2778
Vadvcl
p4384
sssg314
(dp4385
I0
(dp4386
g2778
Vadvmod
p4387
sssVare
p4388
(dp4389
I0
(dp4390
g2778
Vcop
p4391
sssg424
(dp4392
I0
(dp4393
g2778
Vdep
p4394
sssg1588
(dp4395
I0
(dp4396
g2778
Vccomp
p4397
ssssg985
(dp4398
g1624
(dp4399
I0
(dp4400
g2778
Vnmod
p4401
sssVjust
p4402
(dp4403
I0
(dp4404
g2778
Vadvmod
p4405
sssVas
p4406
(dp4407
I0
(dp4408
g2778
Vadvmod
p4409
sssVare
p4410
(dp4411
I0
(dp4412
g2778
Vcop
p4413
sssVthey
p4414
(dp4415
I0
(dp4416
g2778
Vnsubj
p4417
ssssg994
(dp4418
sg996
(dp4419
sg998
(dp4420
g1144
(dp4421
I0
(dp4422
g2778
Vnummod
p4423
sssVto
p4424
(dp4425
I0
(dp4426
g2778
Vcase
p4427
sssg637
(dp4428
I0
(dp4429
g2778
Vnmod
p4430
sssg1554
(dp4431
I0
(dp4432
g2778
Vparataxis
p4433
sssg2297
(dp4434
I0
(dp4435
g2778
Vnummod
p4436
sssVtall
p4437
(dp4438
I0
(dp4439
g2778
Vxcomp
p4440
sssg299
(dp4441
I0
(dp4442
g2778
Vadvmod
p4443
sssg1510
(dp4444
I0
(dp4445
g2778
Vnsubj
p4446
ssssg1013
(dp4447
Vthe
p4448
(dp4449
I0
(dp4450
g2778
Vdet
p4451
sssg803
(dp4452
I0
(dp4453
g2778
Vamod
p4454
ssssg1019
(dp4455
Vhighly
p4456
(dp4457
I0
(dp4458
g2778
Vadvmod
p4459
sssVmore
p4460
(dp4461
I0
(dp4462
g2778
Vdep
p4463
ssssg1024
(dp4464
Vsupposedly
p4465
(dp4466
I0
(dp4467
g2778
Vadvmod
p4468
sssg446
(dp4469
I0
(dp4470
g2778
Vnmod
p4471
sssVare
p4472
(dp4473
I0
(dp4474
g2778
Vcop
p4475
sssVthey
p4476
(dp4477
I0
(dp4478
g2778
Vnsubj
p4479
ssssg1031
(dp4480
g489
(dp4481
I0
(dp4482
g2778
Vnmod
p4483
sssg619
(dp4484
I0
(dp4485
g2778
Vnmod
p4486
sssVand
p4487
(dp4488
I0
(dp4489
g2778
Vcc
p4490
sssg1760
(dp4491
I0
(dp4492
g2778
Vauxpass
p4493
sssVit
p4494
(dp4495
I0
(dp4496
g2778
Vnsubjpass
p4497
sssg589
(dp4498
I0
(dp4499
g2778
Vconj
p4500
ssssg1040
(dp4501
sg1042
(dp4502
g90
(dp4503
I0
(dp4504
g2778
Vcase
p4505
ssssg1046
(dp4506
g1358
(dp4507
I0
(dp4508
g2778
Vamod
p4509
sssVthe
p4510
(dp4511
I0
(dp4512
g2778
Vdet
p4513
ssssg1052
(dp4514
g696
(dp4515
I0
(dp4516
g2778
Vdet
p4517
sssg2145
(dp4518
I0
(dp4519
g2778
Vnmod
p4520
sssg2701
(dp4521
I0
(dp4522
g2778
Vcompound
p4523
ssI1
(dp4524
g2778
Vappos
p4525
ssI2
(dp4526
g2778
Vcompound
p4527
sssVfor
p4528
(dp4529
I0
(dp4530
g2778
Vcase
p4531
sssg2575
(dp4532
I0
(dp4533
g2778
Vamod
p4534
sssVsystem
p4535
(dp4536
I0
(dp4537
g2778
Vconj
p4538
sssg1404
(dp4539
I0
(dp4540
g2778
Vcompound
p4541
sssg2563
(dp4542
I0
(dp4543
g2778
Vamod
p4544
sssg2648
(dp4545
I0
(dp4546
g2778
Vnmod:poss
p4547
sssVfrom
p4548
(dp4549
I0
(dp4550
g2778
Vcase
p4551
sssVor
p4552
(dp4553
I0
(dp4554
g2778
Vcc
p4555
ssssg1076
(dp4556
sg1078
(dp4557
Vto
p4558
(dp4559
I0
(dp4560
g2778
Vcase
p4561
sssg1479
(dp4562
I0
(dp4563
g2778
Vacl:relcl
p4564
ssssg1083
(dp4565
sg1085
(dp4566
sg1087
(dp4567
sg1089
(dp4568
sg1091
(dp4569
g2459
(dp4570
I0
(dp4571
g2778
Vamod
p4572
sssg1508
(dp4573
I0
(dp4574
g2778
Vamod
p4575
ssssg1096
(dp4576
sg1098
(dp4577
Vgrey
p4578
(dp4579
I0
(dp4580
g2778
Vdobj
p4581
sssVwho
p4582
(dp4583
I0
(dp4584
g2778
Vnsubjpass
p4585
sssg429
(dp4586
I0
(dp4587
g2778
Vnmod
p4588
sssVare
p4589
(dp4590
I0
(dp4591
g2778
Vauxpass
p4592
sssVthat
p4593
(dp4594
I0
(dp4595
g2778
Vnsubj
p4596
ssssg1109
(dp4597
g696
(dp4598
I0
(dp4599
g2778
Vdet
p4600
sssVsome
p4601
(dp4602
I0
(dp4603
g2778
Vdet
p4604
sssVfrom
p4605
(dp4606
I0
(dp4607
g2778
Vcase
p4608
sssg755
(dp4609
I0
(dp4610
g2778
Vnmod
p4611
ssssg1118
(dp4612
sg1120
(dp4613
g2092
(dp4614
I0
(dp4615
g2778
Vnsubj
p4616
sssg182
(dp4617
I0
(dp4618
g2778
Vdobj
p4619
sssg2366
(dp4620
I0
(dp4621
g2778
Vccomp
p4622
ssssg1126
(dp4623
sg1128
(dp4624
Vand
p4625
(dp4626
I0
(dp4627
g2778
Vcc
p4628
sssVbe
p4629
(dp4630
I0
(dp4631
g2778
Vauxpass
p4632
sssVbut
p4633
(dp4634
I0
(dp4635
g2778
Vcc
p4636
sssVhere
p4637
(dp4638
I0
(dp4639
g2778
Vadvmod
p4640
sssg1986
(dp4641
I0
(dp4642
g2778
Vnsubjpass
p4643
sssVwith
p4644
(dp4645
I0
(dp4646
g2778
Vmark
p4647
sssVtake
p4648
(dp4649
I0
(dp4650
g2778
Vconj
p4651
ssssg1139
(dp4652
g696
(dp4653
I0
(dp4654
g2778
Vdet
p4655
sssg809
(dp4656
I0
(dp4657
g2778
Vnmod
p4658
ssssg1144
(dp4659
sg1146
(dp4660
Vmore
p4661
(dp4662
I0
(dp4663
g2778
Vadvmod
p4664
ssssg1150
(dp4665
g696
(dp4666
I0
(dp4667
g2778
Vdet
p4668
ssI1
(dp4669
g2778
Vdet
p4670
sssVand
p4671
(dp4672
I0
(dp4673
g2778
Vcc
p4674
sssg1931
(dp4675
I0
(dp4676
g2778
Vnmod
p4677
sssg1548
(dp4678
I0
(dp4679
g2778
Vnsubj
p4680
sssg1937
(dp4681
I0
(dp4682
g2778
Vdet
p4683
ssI1
(dp4684
g2778
Vdet
p4685
ssI2
(dp4686
g2778
Vdet
p4687
ssI3
(dp4688
g2778
Vdet
p4689
sssVof
p4690
(dp4691
I0
(dp4692
g2778
Vcase
p4693
ssI1
(dp4694
g2778
Vcase
p4695
ssI2
(dp4696
g2778
Vcase
p4697
sssg572
(dp4698
I0
(dp4699
g2778
Vnmod
p4700
sssVto
p4701
(dp4702
I0
(dp4703
g2778
Vmark
p4704
ssI1
(dp4705
g2778
Vcase
p4706
sssVas
p4707
(dp4708
I0
(dp4709
g2778
Vcase
p4710
ssI1
(dp4711
g2778
Vcase
p4712
sssVreticuli
p4713
(dp4714
I0
(dp4715
g2778
Vnsubj
p4716
sssg135
(dp4717
I0
(dp4718
g2778
Vconj
p4719
sssVservant
p4720
(dp4721
I0
(dp4722
g2778
Vnmod
p4723
sssVtall
p4724
(dp4725
I0
(dp4726
g2778
Vamod
p4727
sssVthe
p4728
(dp4729
I0
(dp4730
g2778
Vdet
p4731
ssI1
(dp4732
g2778
Vdet
p4733
ssI2
(dp4734
g2778
Vdet
p4735
ssI3
(dp4736
g2778
Vdet
p4737
ssI4
(dp4738
g2778
Vdet
p4739
ssI5
(dp4740
g2778
Vdet
p4741
ssI6
(dp4742
g2778
Vdet
p4743
sssg407
(dp4744
I0
(dp4745
g2778
Vdobj
p4746
sssVby
p4747
(dp4748
I0
(dp4749
g2778
Vcase
p4750
ssI1
(dp4751
g2778
Vcase
p4752
sssg998
(dp4753
I0
(dp4754
g2778
Vdep
p4755
ssssg1224
(dp4756
Von
p4757
(dp4758
I0
(dp4759
g2778
Vcase
p4760
sssVthe
p4761
(dp4762
I0
(dp4763
g2778
Vdet
p4764
ssssg1229
(dp4765
sg1231
(dp4766
g2431
(dp4767
I0
(dp4768
g2778
Vnmod
p4769
sssVthe
p4770
(dp4771
I0
(dp4772
g2778
Vdet
p4773
sssg1268
(dp4774
I0
(dp4775
g2778
Vacl:relcl
p4776
ssssg1237
(dp4777
g1912
(dp4778
I0
(dp4779
g2778
Vamod
p4780
sssVin
p4781
(dp4782
I0
(dp4783
g2778
Vcase
p4784
ssssg1242
(dp4785
g1410
(dp4786
I0
(dp4787
g2778
Vamod
p4788
sssVwith
p4789
(dp4790
I0
(dp4791
g2778
Vcase
p4792
sssVby
p4793
(dp4794
I0
(dp4795
g2778
Vcase
p4796
sssg845
(dp4797
I0
(dp4798
g2778
Vdet
p4799
ssssg1251
(dp4800
sg1253
(dp4801
g696
(dp4802
I0
(dp4803
g2778
Vdet
p4804
sssg1847
(dp4805
I0
(dp4806
g2778
Vamod
p4807
sssVin
p4808
(dp4809
I0
(dp4810
g2778
Vcase
p4811
ssssg1259
(dp4812
Vand
p4813
(dp4814
I0
(dp4815
g2778
Vcc
p4816
ssI1
(dp4817
g2778
Vcc
p4818
sssg2238
(dp4819
I0
(dp4820
g2778
Vconj
p4821
sssg1390
(dp4822
I0
(dp4823
g2778
Vadvcl
p4824
sssg789
(dp4825
I0
(dp4826
g2778
Vnmod
p4827
sssVthey
p4828
(dp4829
I0
(dp4830
g2778
Vnsubj
p4831
ssI1
(dp4832
g2778
Vnsubj
p4833
sssValso
p4834
(dp4835
I0
(dp4836
g2778
Vadvmod
p4837
sssVsupposedly
p4838
(dp4839
I0
(dp4840
g2778
Vadvmod
p4841
sssg2550
(dp4842
I0
(dp4843
g2778
Vcc
p4844
sssVgrey
p4845
(dp4846
I0
(dp4847
g2778
Vnsubj
p4848
ssI1
(dp4849
g2778
Vnsubj
p4850
sssValien
p4851
(dp4852
I0
(dp4853
g2778
Vdobj
p4854
sssVto
p4855
(dp4856
I0
(dp4857
g2778
Vmark
p4858
ssI1
(dp4859
g2778
Vmark
p4860
sssg542
(dp4861
I0
(dp4862
g2778
Vdobj
p4863
sssg1109
(dp4864
I0
(dp4865
g2778
Vdobj
p4866
sssg4329
(dp4867
I0
(dp4868
g2778
Vconj
p4869
sssVhave
p4870
(dp4871
I0
(dp4872
g2778
Vaux
p4873
sssg1443
(dp4874
I0
(dp4875
g2778
Vadvcl
p4876
sssVbase
p4877
(dp4878
I0
(dp4879
g2778
Vdobj
p4880
ssI1
(dp4881
g2778
Vdobj
p4882
sssg2019
(dp4883
I0
(dp4884
g2778
Vdobj
p4885
sssVare
p4886
(dp4887
I0
(dp4888
g2778
Vconj
p4889
sssg2102
(dp4890
I0
(dp4891
g2778
Vdobj
p4892
ssssg1300
(dp4893
Vsystem
p4894
(dp4895
I0
(dp4896
g2778
Vnmod
p4897
sssg1920
(dp4898
I0
(dp4899
g2778
Vadvmod
p4900
sssg361
(dp4901
I0
(dp4902
g2778
Vxcomp
p4903
sssVthey
p4904
(dp4905
I0
(dp4906
g2778
Vnsubj
p4907
sssVthe
p4908
(dp4909
I0
(dp4910
g2778
Vdet
p4911
sssg875
(dp4912
I0
(dp4913
g2778
Vcase
p4914
ssssg1311
(dp4915
Vand
p4916
(dp4917
I0
(dp4918
g2778
Vcc
p4919
sssg516
(dp4920
I0
(dp4921
g2778
Vxcomp
p4922
sssVthere
p4923
(dp4924
I0
(dp4925
g2778
Vexpl
p4926
sssg1642
(dp4927
I0
(dp4928
g2778
Vnmod
p4929
sssVit
p4930
(dp4931
I0
(dp4932
g2778
Vnsubj
p4933
ssI1
(dp4934
g2778
Vnsubj
p4935
sssg881
(dp4936
I0
(dp4937
g2778
Vccomp
p4938
sssValso
p4939
(dp4940
I0
(dp4941
g2778
Vadvmod
p4942
sssg1662
(dp4943
I0
(dp4944
g2778
Vconj
p4945
sssg654
(dp4946
I0
(dp4947
g2778
Vxcomp
p4948
sssVthey
p4949
(dp4950
I0
(dp4951
g2778
Vnsubj
p4952
sssg4877
(dp4953
I0
(dp4954
g2778
Vnsubj
p4955
sssg1412
(dp4956
I0
(dp4957
g2778
Vxcomp
p4958
ssssg1336
(dp4959
sg1338
(dp4960
sg1340
(dp4961
g2122
(dp4962
I0
(dp4963
g2778
Vamod
p4964
ssssg1344
(dp4965
sg1346
(dp4966
g338
(dp4967
I0
(dp4968
g2778
Vxcomp
p4969
sssVare
p4970
(dp4971
I0
(dp4972
g2778
Vcop
p4973
ssI1
(dp4974
g2778
Vcop
p4975
sssVthey
p4976
(dp4977
I0
(dp4978
g2778
Vnsubj
p4979
sssg1360
(dp4980
I0
(dp4981
g2778
Vxcomp
p4982
ssssg1356
(dp4983
sg1358
(dp4984
sg1360
(dp4985
Vlife
p4986
(dp4987
I0
(dp4988
g2778
Vdobj
p4989
sssg2532
(dp4990
I0
(dp4991
g2778
Vnmod
p4992
sssg1139
(dp4993
I0
(dp4994
g2778
Vdobj
p4995
sssVto
p4996
(dp4997
I0
(dp4998
g2778
Vmark
p4999
sssVso
p5000
(dp5001
I0
(dp5002
g2778
Vadvmod
p5003
sssVhave
p5004
(dp5005
I0
(dp5006
g2778
Vaux
p5007
sssg1748
(dp5008
I0
(dp5009
g2778
Vnmod
p5010
ssssg1372
(dp5011
sg1374
(dp5012
sg1376
(dp5013
Vand
p5014
(dp5015
I0
(dp5016
g2778
Vcc
p5017
sssVfrom
p5018
(dp5019
I0
(dp5020
g2778
Vcase
p5021
sssVare
p5022
(dp5023
I0
(dp5024
g2778
Vcop
p5025
sssVthey
p5026
(dp5027
I0
(dp5028
g2778
Vnsubj
p5029
sssg210
(dp5030
I0
(dp5031
g2778
Vconj
p5032
ssssg1384
(dp5033
Vthe
p5034
(dp5035
I0
(dp5036
g2778
Vdet
p5037
sssg116
(dp5038
I0
(dp5039
g2778
Vnmod
p5040
sssg2351
(dp5041
I0
(dp5042
g2778
Vcase
p5043
ssssg1390
(dp5044
Vto
p5045
(dp5046
I0
(dp5047
g2778
Vmark
p5048
sssg1914
(dp5049
I0
(dp5050
g2778
Vnmod
p5051
sssg1580
(dp5052
I0
(dp5053
g2778
Vnmod
p5054
ssssg1396
(dp5055
sg1398
(dp5056
sg1400
(dp5057
sg1402
(dp5058
sg1404
(dp5059
sg1406
(dp5060
g506
(dp5061
I0
(dp5062
g2778
Vamod
p5063
ssssg1410
(dp5064
sg1412
(dp5065
Vbe
p5066
(dp5067
I0
(dp5068
g2778
Vcop
p5069
sssg352
(dp5070
I0
(dp5071
g2778
Vnummod
p5072
sssVgrey
p5073
(dp5074
I0
(dp5075
g2778
Vnmod
p5076
sssVto
p5077
(dp5078
I0
(dp5079
g2778
Vmark
p5080
ssI1
(dp5081
g2778
Vcase
p5082
sssVas
p5083
(dp5084
I0
(dp5085
g2778
Vadvmod
p5086
sssVsocial
p5087
(dp5088
I0
(dp5089
g2778
Vamod
p5090
sssg781
(dp5091
I0
(dp5092
g2778
Vamod
p5093
sssVthe
p5094
(dp5095
I0
(dp5096
g2778
Vdet
p5097
sssg783
(dp5098
I0
(dp5099
g2778
Vamod
p5100
ssssg1428
(dp5101
sg1430
(dp5102
sg1432
(dp5103
sg1434
(dp5104
g1753
(dp5105
I0
(dp5106
g2778
Vnmod
p5107
sssVon
p5108
(dp5109
I0
(dp5110
g2778
Vcase
p5111
ssI1
(dp5112
g2778
Vcase
p5113
ssI2
(dp5114
g2778
Vcase
p5115
sssg820
(dp5116
I0
(dp5117
g2778
Vnmod
p5118
sssVof
p5119
(dp5120
I0
(dp5121
g2778
Vcase
p5122
sssVover
p5123
(dp5124
I0
(dp5125
g2778
Vcase
p5126
sssVmuch
p5127
(dp5128
I0
(dp5129
g2778
Vadvmod
p5130
sssg2745
(dp5131
I0
(dp5132
g2778
Vnmod
p5133
sssVthe
p5134
(dp5135
I0
(dp5136
g2778
Vdet
p5137
ssI1
(dp5138
g2778
Vdet
p5139
sssg1710
(dp5140
I0
(dp5141
g2778
Vdep
p5142
ssssg1459
(dp5143
g1560
(dp5144
I0
(dp5145
g2778
Vcase
p5146
sssg694
(dp5147
I0
(dp5148
g2778
Vcompound
p5149
sssg1924
(dp5150
I0
(dp5151
g2778
Vcompound
p5152
sssg354
(dp5153
I0
(dp5154
g2778
Vamod
p5155
sssg2599
(dp5156
I0
(dp5157
g2778
Vamod
p5158
ssssg1467
(dp5159
sg1469
(dp5160
g1712
(dp5161
I0
(dp5162
g2778
Vdiscourse
p5163
sssg1400
(dp5164
I0
(dp5165
g2778
Vnsubj
p5166
sssg2288
(dp5167
I0
(dp5168
g2778
Vdobj
p5169
sssVinterest
p5170
(dp5171
I0
(dp5172
g2778
Vxcomp
p5173
sssg2696
(dp5174
I0
(dp5175
g2778
Vnsubj
p5176
sssg1495
(dp5177
I0
(dp5178
g2778
Vdobj
p5179
sssg785
(dp5180
I0
(dp5181
g2778
Vaux
p5182
ssI1
(dp5183
g2778
Vaux
p5184
ssssg1484
(dp5185
Vto
p5186
(dp5187
I0
(dp5188
g2778
Vmark
p5189
sssVthe
p5190
(dp5191
I0
(dp5192
g2778
Vdet
p5193
sssVof
p5194
(dp5195
I0
(dp5196
g2778
Vcase
p5197
sssg1616
(dp5198
I0
(dp5199
g2778
Vnmod
p5200
ssI1
(dp5201
g2778
Vnmod
p5202
sssVbe
p5203
(dp5204
I0
(dp5205
g2778
Vcop
p5206
ssssg1495
(dp5207
g696
(dp5208
I0
(dp5209
g2778
Vdet
p5210
sssg2671
(dp5211
I0
(dp5212
g2778
Vnmod
p5213
ssssg1500
(dp5214
g1126
(dp5215
I0
(dp5216
g2778
Vcase
p5217
ssssg1504
(dp5218
sg1506
(dp5219
sg1508
(dp5220
sg1510
(dp5221
Vto
p5222
(dp5223
I0
(dp5224
g2778
Vdep
p5225
sssVabout
p5226
(dp5227
I0
(dp5228
g2778
Vadvmod
p5229
sssg901
(dp5230
I0
(dp5231
g2778
Vcompound
p5232
ssssg1516
(dp5233
g903
(dp5234
I0
(dp5235
g2778
Vnmod
p5236
ssssg1521
(dp5237
g2080
(dp5238
I0
(dp5239
g2778
Vadvmod
p5240
ssssg1525
(dp5241
sg1527
(dp5242
sg1529
(dp5243
g1956
(dp5244
I0
(dp5245
g2778
Vneg
p5246
sssg356
(dp5247
I0
(dp5248
g2778
Vnsubj
p5249
sssg2409
(dp5250
I0
(dp5251
g2778
Vdobj
p5252
sssg1525
(dp5253
I0
(dp5254
g2778
Vaux
p5255
sssg1096
(dp5256
I0
(dp5257
g2778
Vmark
p5258
ssssg1537
(dp5259
g301
(dp5260
I0
(dp5261
g2778
Vdobj
p5262
sssg1224
(dp5263
I0
(dp5264
g2778
Vnmod
p5265
ssssg1542
(dp5266
g1113
(dp5267
I0
(dp5268
g2778
Vnmod
p5269
ssssg1546
(dp5270
sg1548
(dp5271
Valien
p5272
(dp5273
I0
(dp5274
g2778
Vdep
p5275
sssVtype
p5276
(dp5277
I0
(dp5278
g2778
Vcompound
p5279
sssVhuman
p5280
(dp5281
I0
(dp5282
g2778
Vamod
p5283
ssssg1554
(dp5284
g2274
(dp5285
I0
(dp5286
g2778
Vadvmod
p5287
sssg105
(dp5288
I0
(dp5289
g2778
Vdep
p5290
ssssg1560
(dp5291
sg1562
(dp5292
Vthese
p5293
(dp5294
I0
(dp5295
g2778
Vdet
p5296
ssI1
(dp5297
g2778
Vdet
p5298
ssssg1570
(dp5299
sg1572
(dp5300
sg1574
(dp5301
g2070
(dp5302
I0
(dp5303
g2778
Vnmod
p5304
sssVsome
p5305
(dp5306
I0
(dp5307
g2778
Vdet
p5308
sssg2181
(dp5309
I0
(dp5310
g2778
Vamod
p5311
ssssg1580
(dp5312
Vthe
p5313
(dp5314
I0
(dp5315
g2778
Vdet
p5316
sssg2338
(dp5317
I0
(dp5318
g2778
Vnmod
p5319
sssVin
p5320
(dp5321
I0
(dp5322
g2778
Vcase
p5323
ssssg1586
(dp5324
sg1588
(dp5325
g957
(dp5326
I0
(dp5327
g2778
Vadvcl
p5328
sssVbut
p5329
(dp5330
I0
(dp5331
g2778
Vcc
p5332
sssg1562
(dp5333
I0
(dp5334
g2778
Vnsubj
p5335
ssssg1595
(dp5336
Vthese
p5337
(dp5338
I0
(dp5339
g2778
Vnsubj
p5340
sssVand
p5341
(dp5342
I0
(dp5343
g2778
Vcc
p5344
sssg512
(dp5345
I0
(dp5346
g2778
Vconj
p5347
sssVfrom
p5348
(dp5349
I0
(dp5350
g2778
Vcase
p5351
sssVare
p5352
(dp5353
I0
(dp5354
g2778
Vcop
p5355
ssssg1603
(dp5356
g1396
(dp5357
I0
(dp5358
g2778
Vcase
p5359
ssI1
(dp5360
g2778
Vcase
p5361
sssg2565
(dp5362
I0
(dp5363
g2778
Vcase
p5364
ssI1
(dp5365
g2778
Vcase
p5366
sssg2731
(dp5367
I0
(dp5368
g2778
Vnmod
p5369
sssg1105
(dp5370
I0
(dp5371
g2778
Vacl:relcl
p5372
sssVby
p5373
(dp5374
I0
(dp5375
g2778
Vcase
p5376
sssVto
p5377
(dp5378
I0
(dp5379
g2778
Vcase
p5380
ssI1
(dp5381
g2778
Vcase
p5382
ssI2
(dp5383
g2778
Vcase
p5384
ssI3
(dp5385
g2778
Vcase
p5386
ssI4
(dp5387
g2778
Vcase
p5388
ssI5
(dp5389
g2778
Vcase
p5390
ssI6
(dp5391
g2778
Vcase
p5392
sssg142
(dp5393
I0
(dp5394
g2778
Vnmod
p5395
sssg2420
(dp5396
I0
(dp5397
g2778
Vnmod
p5398
sssVof
p5399
(dp5400
I0
(dp5401
g2778
Vcase
p5402
ssI1
(dp5403
g2778
Vcase
p5404
sssg1448
(dp5405
I0
(dp5406
g2778
Vnmod
p5407
ssI1
(dp5408
g2778
Vcompound
p5409
ssI2
(dp5410
g2778
Vcompound
p5411
ssI3
(dp5412
g2778
Vcompound
p5413
sssVzeta
p5414
(dp5415
I0
(dp5416
g2778
Vnmod
p5417
sssg1802
(dp5418
I0
(dp5419
g2778
Vcase
p5420
sssg413
(dp5421
I0
(dp5422
g2778
Vnmod
p5423
sssVthe
p5424
(dp5425
I0
(dp5426
g2778
Vdet
p5427
ssssg1662
(dp5428
g2714
(dp5429
I0
(dp5430
g2778
Vadvmod
p5431
sssg2595
(dp5432
I0
(dp5433
g2778
Vxcomp
p5434
sssg2130
(dp5435
I0
(dp5436
g2778
Vnmod
p5437
sssg1237
(dp5438
I0
(dp5439
g2778
Vnmod
p5440
sssVare
p5441
(dp5442
I0
(dp5443
g2778
Vauxpass
p5444
sssg375
(dp5445
I0
(dp5446
g2778
Vadvmod
p5447
ssssg1674
(dp5448
Vfor
p5449
(dp5450
I0
(dp5451
g2778
Vcase
p5452
sssVthat
p5453
(dp5454
I0
(dp5455
g2778
Vdet
p5456
ssssg1679
(dp5457
g2485
(dp5458
I0
(dp5459
g2778
Vexpl
p5460
sssg383
(dp5461
I0
(dp5462
g2778
Vnmod
p5463
sssg287
(dp5464
I0
(dp5465
g2778
Vnsubj
p5466
ssssg1685
(dp5467
Vof
p5468
(dp5469
I0
(dp5470
g2778
Vcase
p5471
ssssg1689
(dp5472
sg1691
(dp5473
Vbeing
p5474
(dp5475
I0
(dp5476
g2778
Vauxpass
p5477
sssVthan
p5478
(dp5479
I0
(dp5480
g2778
Vmark
p5481
sssg2084
(dp5482
I0
(dp5483
g2778
Vnmod
p5484
ssssg1698
(dp5485
g696
(dp5486
I0
(dp5487
g2778
Vdet
p5488
sssVwith
p5489
(dp5490
I0
(dp5491
g2778
Vcase
p5492
sssg1897
(dp5493
I0
(dp5494
g2778
Vacl
p5495
ssssg1704
(dp5496
g2292
(dp5497
I0
(dp5498
g2778
Vnmod
p5499
sssVto
p5500
(dp5501
I0
(dp5502
g2778
Vmark
p5503
sssVbe
p5504
(dp5505
I0
(dp5506
g2778
Vauxpass
p5507
ssssg1710
(dp5508
sg1712
(dp5509
sg1714
(dp5510
sg1716
(dp5511
g159
(dp5512
I0
(dp5513
g2778
Vxcomp
p5514
sssVand
p5515
(dp5516
I0
(dp5517
g2778
Vnsubj
p5518
sssg16
(dp5519
I0
(dp5520
g2778
Vnsubj
p5521
sssg186
(dp5522
I0
(dp5523
g2778
Vadvcl
p5524
sssg2637
(dp5525
I0
(dp5526
g2778
Vxcomp
p5527
sssg1704
(dp5528
I0
(dp5529
g2778
Vxcomp
p5530
sssVthey
p5531
(dp5532
I0
(dp5533
g2778
Vnsubj
p5534
ssI1
(dp5535
g2778
Vnsubj
p5536
sssg737
(dp5537
I0
(dp5538
g2778
Vxcomp
p5539
ssssg1736
(dp5540
sg1738
(dp5541
g2479
(dp5542
I0
(dp5543
g2778
Vxcomp
p5544
ssssg1742
(dp5545
Vof
p5546
(dp5547
I0
(dp5548
g2778
Vcase
p5549
ssssg1746
(dp5550
sg1748
(dp5551
g2082
(dp5552
I0
(dp5553
g2778
Vcase
p5554
sssg2740
(dp5555
I0
(dp5556
g2778
Vnmod
p5557
ssssg1753
(dp5558
Vtheir
p5559
(dp5560
I0
(dp5561
g2778
Vnmod:poss
p5562
sssVfor
p5563
(dp5564
I0
(dp5565
g2778
Vcase
p5566
ssssg1758
(dp5567
sg1760
(dp5568
sg1762
(dp5569
Vevolve
p5570
(dp5571
I0
(dp5572
g2778
Vcompound
p5573
sssg1698
(dp5574
I0
(dp5575
g2778
Vnmod
p5576
sssVthis
p5577
(dp5578
I0
(dp5579
g2778
Vdet
p5580
sssVof
p5581
(dp5582
I0
(dp5583
g2778
Vcase
p5584
sssg1019
(dp5585
I0
(dp5586
g2778
Vamod
p5587
sssVin
p5588
(dp5589
I0
(dp5590
g2778
Vcase
p5591
ssssg1773
(dp5592
sg1775
(dp5593
Vbe
p5594
(dp5595
I0
(dp5596
g2778
Vcop
p5597
sssVregard
p5598
(dp5599
I0
(dp5600
g2778
Vadvcl
p5601
ssI1
(dp5602
g2778
Vnmod
p5603
sssg1631
(dp5604
I0
(dp5605
g2778
Vnmod
p5606
sssVto
p5607
(dp5608
I0
(dp5609
g2778
Vmark
p5610
sssVare
p5611
(dp5612
I0
(dp5613
g2778
Vcop
p5614
sssVthey
p5615
(dp5616
I0
(dp5617
g2778
Vnsubj
p5618
ssssg1787
(dp5619
g696
(dp5620
I0
(dp5621
g2778
Vdet
p5622
sssg1685
(dp5623
I0
(dp5624
g2778
Vnmod
p5625
ssssg1792
(dp5626
g698
(dp5627
I0
(dp5628
g2778
Vparataxis
p5629
sssVtype
p5630
(dp5631
I0
(dp5632
g2778
Vcompound
p5633
ssI1
(dp5634
g2778
Vcompound
p5635
sssVgrey
p5636
(dp5637
I0
(dp5638
g2778
Vamod
p5639
sssVhuman
p5640
(dp5641
I0
(dp5642
g2778
Vamod
p5643
sssg4329
(dp5644
I0
(dp5645
g2778
Vparataxis
p5646
ssssg1802
(dp5647
sg1804
(dp5648
sg1806
(dp5649
g696
(dp5650
I0
(dp5651
g2778
Vdet
p5652
sssg770
(dp5653
I0
(dp5654
g2778
Vamod
p5655
sssg2249
(dp5656
I0
(dp5657
g2778
Vcase
p5658
ssssg1812
(dp5659
sg1814
(dp5660
sg1816
(dp5661
Vin
p5662
(dp5663
I0
(dp5664
g2778
Vcase
p5665
ssssg1820
(dp5666
Vtheir
p5667
(dp5668
I0
(dp5669
g2778
Vnmod:poss
p5670
sssg1398
(dp5671
I0
(dp5672
g2778
Vamod
p5673
sssg184
(dp5674
I0
(dp5675
g2778
Vdep
p5676
sssVof
p5677
(dp5678
I0
(dp5679
g2778
Vcase
p5680
ssssg1829
(dp5681
Vto
p5682
(dp5683
I0
(dp5684
g2778
Vcase
p5685
sssVthe
p5686
(dp5687
I0
(dp5688
g2778
Vdet
p5689
ssI1
(dp5690
g2778
Vdet
p5691
sssVas
p5692
(dp5693
I0
(dp5694
g2778
Vcase
p5695
ssssg1839
(dp5696
Vto
p5697
(dp5698
I0
(dp5699
g2778
Vmark
p5700
sssg1546
(dp5701
I0
(dp5702
g2778
Vadvmod
p5703
sssg1650
(dp5704
I0
(dp5705
g2778
Vnmod
p5706
sssVbe
p5707
(dp5708
I0
(dp5709
g2778
Vauxpass
p5710
ssssg1847
(dp5711
sg1849
(dp5712
Vto
p5713
(dp5714
I0
(dp5715
g2778
Vmark
p5716
sssVof
p5717
(dp5718
I0
(dp5719
g2778
Vnmod
p5720
ssssg1854
(dp5721
sg1856
(dp5722
g1049
(dp5723
I0
(dp5724
g2778
Vdobj
p5725
sssVto
p5726
(dp5727
I0
(dp5728
g2778
Vmark
p5729
sssg123
(dp5730
I0
(dp5731
g2778
Vdobj
p5732
sssVby
p5733
(dp5734
I0
(dp5735
g2778
Vmark
p5736
sssg2013
(dp5737
I0
(dp5738
g2778
Vmark
p5739
ssssg1866
(dp5740
sg1868
(dp5741
Vthese
p5742
(dp5743
I0
(dp5744
g2778
Vnsubj
p5745
sssg816
(dp5746
I0
(dp5747
g2778
Vneg
p5748
sssg2601
(dp5749
I0
(dp5750
g2778
Vnmod
p5751
sssVapparently
p5752
(dp5753
I0
(dp5754
g2778
Vadvmod
p5755
sssVare
p5756
(dp5757
I0
(dp5758
g2778
Vcop
p5759
ssssg1876
(dp5760
sg1878
(dp5761
g714
(dp5762
I0
(dp5763
g2778
Vadvmod
p5764
sssg2136
(dp5765
I0
(dp5766
g2778
Vadvcl
p5767
sssg2489
(dp5768
I0
(dp5769
g2778
Vnmod:npmod
p5770
ssssg1886
(dp5771
g496
(dp5772
I0
(dp5773
g2778
Vdet
p5774
sssVof
p5775
(dp5776
I0
(dp5777
g2778
Vcase
p5778
sssg306
(dp5779
I0
(dp5780
g2778
Vconj
p5781
sssVit
p5782
(dp5783
I0
(dp5784
g2778
Vnsubj
p5785
sssVor
p5786
(dp5787
I0
(dp5788
g2778
Vcc
p5789
ssssg1897
(dp5790
g2709
(dp5791
I0
(dp5792
g2778
Vdobj
p5793
ssssg1902
(dp5794
g236
(dp5795
I0
(dp5796
g2778
Vamod
p5797
sssVhuman
p5798
(dp5799
I0
(dp5800
g2778
Vamod
p5801
ssssg1910
(dp5802
sg1912
(dp5803
sg1914
(dp5804
g749
(dp5805
I0
(dp5806
g2778
Vcase
p5807
sssg751
(dp5808
I0
(dp5809
g2778
Vnmod
p5810
ssssg1920
(dp5811
g1812
(dp5812
I0
(dp5813
g2778
Vadvmod
p5814
ssssg1924
(dp5815
sg1926
(dp5816
Vwith
p5817
(dp5818
I0
(dp5819
g2778
Vcase
p5820
sssg2400
(dp5821
I0
(dp5822
g2778
Vnmod
p5823
ssssg1931
(dp5824
Vthe
p5825
(dp5826
I0
(dp5827
g2778
Vdet
p5828
sssVwith
p5829
(dp5830
I0
(dp5831
g2778
Vcase
p5832
sssg2259
(dp5833
I0
(dp5834
g2778
Vnmod
p5835
ssssg1937
(dp5836
Vabout
p5837
(dp5838
I0
(dp5839
g2778
Vcase
p5840
ssssg1942
(dp5841
Vfair-skinned
p5842
(dp5843
I0
(dp5844
g2778
Vamod
p5845
sssVof
p5846
(dp5847
I0
(dp5848
g2778
Vcase
p5849
sssVtheir
p5850
(dp5851
I0
(dp5852
g2778
Vnmod:poss
p5853
sssValso
p5854
(dp5855
I0
(dp5856
g2778
Vadvmod
p5857
sssVare
p5858
(dp5859
I0
(dp5860
g2778
Vcop
p5861
sssVthe
p5862
(dp5863
I0
(dp5864
g2778
Vdet
p5865
sssVblonde
p5866
(dp5867
I0
(dp5868
g2778
Vamod
p5869
ssssg1954
(dp5870
sg1956
(dp5871
sg1958
(dp5872
sg1960
(dp5873
g1746
(dp5874
I0
(dp5875
g2778
Vconj
p5876
sssg2385
(dp5877
I0
(dp5878
g2778
Vcop
p5879
sssVand
p5880
(dp5881
I0
(dp5882
g2778
Vcc
p5883
sssg1374
(dp5884
I0
(dp5885
g2778
Vconj
p5886
sssVmore
p5887
(dp5888
I0
(dp5889
g2778
Vadvmod
p5890
ssssg1968
(dp5891
g696
(dp5892
I0
(dp5893
g2778
Vdet
p5894
sssVof
p5895
(dp5896
I0
(dp5897
g2778
Vcase
p5898
sssg1146
(dp5899
I0
(dp5900
g2778
Vamod
p5901
sssg1076
(dp5902
I0
(dp5903
g2778
Vamod
p5904
sssg1610
(dp5905
I0
(dp5906
g2778
Vnmod
p5907
sssVmore
p5908
(dp5909
I0
(dp5910
g2778
Vamod
p5911
ssssg1979
(dp5912
Vmany
p5913
(dp5914
I0
(dp5915
g2778
Vamod
p5916
sssg2222
(dp5917
I0
(dp5918
g2778
Vnmod
p5919
sssVin
p5920
(dp5921
I0
(dp5922
g2778
Vcase
p5923
ssssg1986
(dp5924
Valien
p5925
(dp5926
I0
(dp5927
g2778
Vamod
p5928
sssVof
p5929
(dp5930
I0
(dp5931
g2778
Vcase
p5932
sssVthe
p5933
(dp5934
I0
(dp5935
g2778
Vdet
p5936
ssI1
(dp5937
g2778
Vdet
p5938
sssg1456
(dp5939
I0
(dp5940
g2778
Vnmod
p5941
ssssg1996
(dp5942
Vand
p5943
(dp5944
I0
(dp5945
g2778
Vcc
p5946
sssVnew
p5947
(dp5948
I0
(dp5949
g2778
Vamod
p5950
sssg1467
(dp5951
I0
(dp5952
g2778
Vconj
p5953
sssVin
p5954
(dp5955
I0
(dp5956
g2778
Vcase
p5957
ssssg2003
(dp5958
sg2005
(dp5959
Vtheir
p5960
(dp5961
I0
(dp5962
g2778
Vnmod:poss
p5963
sssVfor
p5964
(dp5965
I0
(dp5966
g2778
Vcase
p5967
ssssg2010
(dp5968
g742
(dp5969
I0
(dp5970
g2778
Vmwe
p5971
ssssg2015
(dp5972
sg2017
(dp5973
sg2019
(dp5974
g716
(dp5975
I0
(dp5976
g2778
Vacl:relcl
p5977
ssssg2024
(dp5978
sg2026
(dp5979
g2064
(dp5980
I0
(dp5981
g2778
Vdobj
p5982
sssVto
p5983
(dp5984
I0
(dp5985
g2778
Vmark
p5986
ssssg2031
(dp5987
g2092
(dp5988
I0
(dp5989
g2778
Vnsubj
p5990
sssg546
(dp5991
I0
(dp5992
g2778
Vdobj
p5993
sssVand
p5994
(dp5995
I0
(dp5996
g2778
Vcc
p5997
sssg1537
(dp5998
I0
(dp5999
g2778
Vconj
p6000
sssg1384
(dp6001
I0
(dp6002
g2778
Vnmod
p6003
ssssg2039
(dp6004
Vto
p6005
(dp6006
I0
(dp6007
g2778
Vmark
p6008
sssg1856
(dp6009
I0
(dp6010
g2778
Vadvcl
p6011
sssg1046
(dp6012
I0
(dp6013
g2778
Vdobj
p6014
sssg1607
(dp6015
I0
(dp6016
g2778
Vnmod
p6017
ssssg2046
(dp6018
sg2048
(dp6019
Vbeing
p6020
(dp6021
I0
(dp6022
g2778
Vcop
p6023
sssVas
p6024
(dp6025
I0
(dp6026
g2778
Vmark
p6027
sssg1005
(dp6028
I0
(dp6029
g2778
Vnmod
p6030
ssssg2054
(dp6031
sg2056
(dp6032
g2429
(dp6033
I0
(dp6034
g2778
Vadvmod
p6035
ssssg2060
(dp6036
sg2062
(dp6037
sg2064
(dp6038
Vcertain
p6039
(dp6040
I0
(dp6041
g2778
Vamod
p6042
sssg202
(dp6043
I0
(dp6044
g2778
Vacl:relcl
p6045
sssVof
p6046
(dp6047
I0
(dp6048
g2778
Vcase
p6049
ssssg2073
(dp6050
g2385
(dp6051
I0
(dp6052
g2778
Vcop
p6053
sssg1762
(dp6054
I0
(dp6055
g2778
Vnmod
p6056
sssg1336
(dp6057
I0
(dp6058
g2778
Vadvmod
p6059
sssVthat
p6060
(dp6061
I0
(dp6062
g2778
Vnsubj
p6063
ssssg2080
(dp6064
sg2082
(dp6065
sg2084
(dp6066
Vabout
p6067
(dp6068
I0
(dp6069
g2778
Vcase
p6070
sssVthe
p6071
(dp6072
I0
(dp6073
g2778
Vdet
p6074
sssVgrey
p6075
(dp6076
I0
(dp6077
g2778
Vamod
p6078
ssssg2090
(dp6079
sg2092
(dp6080
sg2094
(dp6081
sg2096
(dp6082
sg2098
(dp6083
sg2100
(dp6084
sg2102
(dp6085
g696
(dp6086
I0
(dp6087
g2778
Vdet
p6088
sssg1647
(dp6089
I0
(dp6090
g2778
Vnmod
p6091
ssssg2107
(dp6092
sg2109
(dp6093
Valien
p6094
(dp6095
I0
(dp6096
g2778
Vamod
p6097
sssVof
p6098
(dp6099
I0
(dp6100
g2778
Vcase
p6101
ssI1
(dp6102
g2778
Vcase
p6103
sssg4329
(dp6104
I0
(dp6105
g2778
Vdep
p6106
sssVhuman
p6107
(dp6108
I0
(dp6109
g2778
Vamod
p6110
ssssg2120
(dp6111
sg2122
(dp6112
Vover
p6113
(dp6114
I0
(dp6115
g2778
Vcase
p6116
sssg2303
(dp6117
I0
(dp6118
g2778
Vcase
p6119
ssssg2128
(dp6120
sg2130
(dp6121
Vbeing
p6122
(dp6123
I0
(dp6124
g2778
Vnmod
p6125
sssVtheir
p6126
(dp6127
I0
(dp6128
g2778
Vnmod:poss
p6129
sssVin
p6130
(dp6131
I0
(dp6132
g2778
Vcase
p6133
ssssg2136
(dp6134
g612
(dp6135
I0
(dp6136
g2778
Vnsubj
p6137
sssg818
(dp6138
I0
(dp6139
g2778
Vnsubj
p6140
sssg1773
(dp6141
I0
(dp6142
g2778
Vxcomp
p6143
sssg1246
(dp6144
I0
(dp6145
g2778
Vnmod
p6146
sssVthat
p6147
(dp6148
I0
(dp6149
g2778
Vmark
p6150
ssssg2145
(dp6151
Vnear
p6152
(dp6153
I0
(dp6154
g2778
Vcase
p6155
sssVthe
p6156
(dp6157
I0
(dp6158
g2778
Vdet
p6159
sssg574
(dp6160
I0
(dp6161
g2778
Vnmod
p6162
ssssg2151
(dp6163
sg2153
(dp6164
Vdo
p6165
(dp6166
I0
(dp6167
g2778
Vaux
p6168
sssg2107
(dp6169
I0
(dp6170
g2778
Vadvmod
p6171
sssg2092
(dp6172
I0
(dp6173
g2778
Vnsubj
p6174
ssI1
(dp6175
g2778
Vnsubj
p6176
sssg2003
(dp6177
I0
(dp6178
g2778
Vdobj
p6179
sssg2251
(dp6180
I0
(dp6181
g2778
Vaux
p6182
sssVn't
p6183
(dp6184
I0
(dp6185
g2778
Vneg
p6186
sssValso
p6187
(dp6188
I0
(dp6189
g2778
Vadvmod
p6190
sssg2756
(dp6191
I0
(dp6192
g2778
Vccomp
p6193
sssg603
(dp6194
I0
(dp6195
g2778
Vccomp
p6196
ssssg2170
(dp6197
g2342
(dp6198
I0
(dp6199
g2778
Vdep
p6200
sssVthe
p6201
(dp6202
I0
(dp6203
g2778
Vdet
p6204
ssI1
(dp6205
g2778
Vdet
p6206
sssVwith
p6207
(dp6208
I0
(dp6209
g2778
Vcase
p6210
sssVappear
p6211
(dp6212
I0
(dp6213
g2778
Vacl:relcl
p6214
ssssg2181
(dp6215
sg2183
(dp6216
g2385
(dp6217
I0
(dp6218
g2778
Vauxpass
p6219
sssg909
(dp6220
I0
(dp6221
g2778
Vnsubjpass
p6222
sssg1529
(dp6223
I0
(dp6224
g2778
Vccomp
p6225
sssg2092
(dp6226
I0
(dp6227
g2778
Vnsubj
p6228
sssg1042
(dp6229
I0
(dp6230
g2778
Vnmod
p6231
sssVthere
p6232
(dp6233
I0
(dp6234
g2778
Vexpl
p6235
sssValien
p6236
(dp6237
I0
(dp6238
g2778
Vdobj
p6239
sssg2128
(dp6240
I0
(dp6241
g2778
Vadvmod
p6242
ssI1
(dp6243
g2778
Vadvmod
p6244
sssg2353
(dp6245
I0
(dp6246
g2778
Vnmod
p6247
sssg1940
(dp6248
I0
(dp6249
g2778
Vnmod
p6250
sssg1689
(dp6251
I0
(dp6252
g2778
Vdep
p6253
sssg1280
(dp6254
I0
(dp6255
g2778
Vxcomp
p6256
sssVother
p6257
(dp6258
I0
(dp6259
g2778
Vadvmod
p6260
sssg2360
(dp6261
I0
(dp6262
g2778
Vnmod
p6263
sssVare
p6264
(dp6265
I0
(dp6266
g2778
Vauxpass
p6267
ssI1
(dp6268
g2778
Vauxpass
p6269
ssssg2215
(dp6270
sg2217
(dp6271
Vof
p6272
(dp6273
I0
(dp6274
g2778
Vcase
p6275
sssVthe
p6276
(dp6277
I0
(dp6278
g2778
Vdet
p6279
sssg2358
(dp6280
I0
(dp6281
g2778
Vamod
p6282
ssssg2226
(dp6283
Vand
p6284
(dp6285
I0
(dp6286
g2778
Vcc
p6287
sssg3568
(dp6288
I0
(dp6289
g2778
Vauxpass
p6290
sssVgrey
p6291
(dp6292
I0
(dp6293
g2778
Vnmod
p6294
sssVor
p6295
(dp6296
I0
(dp6297
g2778
Vcc
p6298
sssg473
(dp6299
I0
(dp6300
g2778
Vconj
p6301
sssVhave
p6302
(dp6303
I0
(dp6304
g2778
Vaux
p6305
sssVentity
p6306
(dp6307
I0
(dp6308
g2778
Vnsubjpass
p6309
sssg646
(dp6310
I0
(dp6311
g2778
Vconj
p6312
ssssg2238
(dp6313
g2170
(dp6314
I0
(dp6315
g2778
Vnmod
p6316
sssg994
(dp6317
I0
(dp6318
g2778
Vaux
p6319
sssVthey
p6320
(dp6321
I0
(dp6322
g2778
Vnsubj
p6323
sssg1484
(dp6324
I0
(dp6325
g2778
Vdobj
p6326
ssI1
(dp6327
g2778
Vxcomp
p6328
sssVwould
p6329
(dp6330
I0
(dp6331
g2778
Vaux
p6332
ssssg2249
(dp6333
sg2251
(dp6334
sg2253
(dp6335
sg2255
(dp6336
Vlarge
p6337
(dp6338
I0
(dp6339
g2778
Vamod
p6340
sssVof
p6341
(dp6342
I0
(dp6343
g2778
Vcase
p6344
sssVthe
p6345
(dp6346
I0
(dp6347
g2778
Vdet
p6348
sssg847
(dp6349
I0
(dp6350
g2778
Vacl
p6351
sssVno
p6352
(dp6353
I0
(dp6354
g2778
Vneg
p6355
ssssg2265
(dp6356
g2591
(dp6357
I0
(dp6358
g2778
Vnsubj
p6359
sssg2385
(dp6360
I0
(dp6361
g2778
Vaux
p6362
sssVand
p6363
(dp6364
I0
(dp6365
g2778
Vcc
p6366
sssg1738
(dp6367
I0
(dp6368
g2778
Vxcomp
p6369
sssg1306
(dp6370
I0
(dp6371
g2778
Vconj
p6372
ssssg2274
(dp6373
sg2276
(dp6374
g503
(dp6375
I0
(dp6376
g2778
Vnsubj
p6377
sssg275
(dp6378
I0
(dp6379
g2778
Vnmod
p6380
sssg2090
(dp6381
I0
(dp6382
g2778
Vadvmod
p6383
ssssg2283
(dp6384
g2092
(dp6385
I0
(dp6386
g2778
Vnsubj
p6387
sssg2623
(dp6388
I0
(dp6389
g2778
Vccomp
p6390
ssssg2288
(dp6391
g1886
(dp6392
I0
(dp6393
g2778
Vnmod
p6394
ssssg2292
(dp6395
g2319
(dp6396
I0
(dp6397
g2778
Vamod
p6398
sssVwith
p6399
(dp6400
I0
(dp6401
g2778
Vcase
p6402
ssssg2297
(dp6403
Vabout
p6404
(dp6405
I0
(dp6406
g2778
Vadvmod
p6407
ssssg2301
(dp6408
sg2303
(dp6409
Vfor
p6410
(dp6411
I0
(dp6412
g2778
Vcase
p6413
sssg1356
(dp6414
I0
(dp6415
g2778
Vcompound
p6416
ssI1
(dp6417
g2778
Vamod
p6418
sssg1958
(dp6419
I0
(dp6420
g2778
Vamod
p6421
sssg1229
(dp6422
I0
(dp6423
g2778
Vcompound
p6424
sssVin
p6425
(dp6426
I0
(dp6427
g2778
Vcase
p6428
sssg480
(dp6429
I0
(dp6430
g2778
Vnummod
p6431
ssI1
(dp6432
g2778
Vnummod
p6433
sssVthe
p6434
(dp6435
I0
(dp6436
g2778
Vdet
p6437
ssI1
(dp6438
g2778
Vdet
p6439
ssssg2319
(dp6440
sg2321
(dp6441
Vand
p6442
(dp6443
I0
(dp6444
g2778
Vcc
p6445
sssVfrom
p6446
(dp6447
I0
(dp6448
g2778
Vcase
p6449
sssVthese
p6450
(dp6451
I0
(dp6452
g2778
Vnsubj
p6453
sssg1942
(dp6454
I0
(dp6455
g2778
Vconj
p6456
sssVare
p6457
(dp6458
I0
(dp6459
g2778
Vcop
p6460
sssVthe
p6461
(dp6462
I0
(dp6463
g2778
Vdet
p6464
ssssg2330
(dp6465
g696
(dp6466
I0
(dp6467
g2778
Vdet
p6468
sssVon
p6469
(dp6470
I0
(dp6471
g2778
Vcase
p6472
sssVof
p6473
(dp6474
I0
(dp6475
g2778
Vcase
p6476
ssI1
(dp6477
g2778
Vcase
p6478
sssg1638
(dp6479
I0
(dp6480
g2778
Vnmod
p6481
sssg2096
(dp6482
I0
(dp6483
g2778
Vamod
p6484
sssg1083
(dp6485
I0
(dp6486
g2778
Vnmod:poss
p6487
sssVhuman
p6488
(dp6489
I0
(dp6490
g2778
Vamod
p6491
sssg525
(dp6492
I0
(dp6493
g2778
Vamod
p6494
sssVsimilar
p6495
(dp6496
I0
(dp6497
g2778
Vamod
p6498
ssssg2351
(dp6499
sg2353
(dp6500
Vas
p6501
(dp6502
I0
(dp6503
g2778
Vcase
p6504
sssg1829
(dp6505
I0
(dp6506
g2778
Vcompound
p6507
ssssg2358
(dp6508
sg2360
(dp6509
Vthe
p6510
(dp6511
I0
(dp6512
g2778
Vdet
p6513
sssg343
(dp6514
I0
(dp6515
g2778
Vcase
p6516
sssVzeta
p6517
(dp6518
I0
(dp6519
g2778
Vcompound
p6520
ssssg2366
(dp6521
g2385
(dp6522
I0
(dp6523
g2778
Vaux
p6524
sssVfor
p6525
(dp6526
I0
(dp6527
g2778
Vmark
p6528
sssVbeing
p6529
(dp6530
I0
(dp6531
g2778
Vauxpass
p6532
sssVgrey
p6533
(dp6534
I0
(dp6535
g2778
Vnmod
p6536
ssI1
(dp6537
g2778
Vnmod
p6538
sssg283
(dp6539
I0
(dp6540
g2778
Vadvmod
p6541
sssVto
p6542
(dp6543
I0
(dp6544
g2778
Vxcomp
p6545
ssI1
(dp6546
g2778
Vxcomp
p6547
sssg919
(dp6548
I0
(dp6549
g2778
Vnsubjpass
p6550
sssVare
p6551
(dp6552
I0
(dp6553
g2778
Vauxpass
p6554
sssg1421
(dp6555
I0
(dp6556
g2778
Vnmod
p6557
ssssg2385
(dp6558
Vsupposedly
p6559
(dp6560
I0
(dp6561
g2778
Vadvmod
p6562
sssVthat
p6563
(dp6564
I0
(dp6565
g2778
Vnsubj
p6566
sssg794
(dp6567
I0
(dp6568
g2778
Vnsubj
p6569
sssVthere
p6570
(dp6571
I0
(dp6572
g2778
Vexpl
p6573
sssg722
(dp6574
I0
(dp6575
g2778
Vxcomp
p6576
sssg1120
(dp6577
I0
(dp6578
g2778
Vccomp
p6579
sssg398
(dp6580
I0
(dp6581
g2778
Vnsubj
p6582
ssssg2400
(dp6583
Vin
p6584
(dp6585
I0
(dp6586
g2778
Vcase
p6587
ssssg2404
(dp6588
g2427
(dp6589
I0
(dp6590
g2778
Vcase
p6591
sssg2100
(dp6592
I0
(dp6593
g2778
Vdet
p6594
ssI1
(dp6595
g2778
Vdet
p6596
ssssg2412
(dp6597
sg2414
(dp6598
g2062
(dp6599
I0
(dp6600
g2778
Vamod
p6601
sssg1926
(dp6602
I0
(dp6603
g2778
Vnmod
p6604
ssssg2420
(dp6605
Vin
p6606
(dp6607
I0
(dp6608
g2778
Vcase
p6609
ssssg2425
(dp6610
sg2427
(dp6611
sg2429
(dp6612
sg2431
(dp6613
Vof
p6614
(dp6615
I0
(dp6616
g2778
Vcase
p6617
ssssg2435
(dp6618
g2469
(dp6619
I0
(dp6620
g2778
Vdobj
p6621
sssg4329
(dp6622
I0
(dp6623
g2778
Vdep
p6624
sssg1052
(dp6625
I0
(dp6626
g2778
Vnsubj
p6627
ssssg2442
(dp6628
sg2444
(dp6629
Vto
p6630
(dp6631
I0
(dp6632
g2778
Vcase
p6633
ssssg2449
(dp6634
sg2451
(dp6635
sg2453
(dp6636
g1586
(dp6637
I0
(dp6638
g2778
Vconj
p6639
sssVhostile
p6640
(dp6641
I0
(dp6642
g2778
Vconj
p6643
sssVor
p6644
(dp6645
I0
(dp6646
g2778
Vcc
p6647
ssssg2459
(dp6648
g2151
(dp6649
I0
(dp6650
g2778
Vdep
p6651
ssssg2463
(dp6652
Vto
p6653
(dp6654
I0
(dp6655
g2778
Vmark
p6656
sssVgain
p6657
(dp6658
I0
(dp6659
g2778
Vadvcl
p6660
sssg1434
(dp6661
I0
(dp6662
g2778
Vdobj
p6663
ssssg2469
(dp6664
g2726
(dp6665
I0
(dp6666
g2778
Vnmod
p6667
sssVthe
p6668
(dp6669
I0
(dp6670
g2778
Vdet
p6671
ssI1
(dp6672
g2778
Vdet
p6673
sssg569
(dp6674
I0
(dp6675
g2778
Vcompound
p6676
sssVin
p6677
(dp6678
I0
(dp6679
g2778
Vcase
p6680
ssssg2479
(dp6681
Vto
p6682
(dp6683
I0
(dp6684
g2778
Vmark
p6685
sssVlife
p6686
(dp6687
I0
(dp6688
g2778
Vdobj
p6689
sssg879
(dp6690
I0
(dp6691
g2778
Vadvmod
p6692
ssssg2485
(dp6693
sg2487
(dp6694
sg2489
(dp6695
Vthe
p6696
(dp6697
I0
(dp6698
g2778
Vdet
p6699
ssssg2493
(dp6700
g766
(dp6701
I0
(dp6702
g2778
Vadvmod
p6703
sssg1620
(dp6704
I0
(dp6705
g2778
Vnmod
p6706
sssVgrey
p6707
(dp6708
I0
(dp6709
g2778
Vnsubj
p6710
sssVare
p6711
(dp6712
I0
(dp6713
g2778
Vcop
p6714
ssssg2500
(dp6715
g839
(dp6716
I0
(dp6717
g2778
Vnmod
p6718
sssg807
(dp6719
I0
(dp6720
g2778
Vnsubj
p6721
ssssg2505
(dp6722
g121
(dp6723
I0
(dp6724
g2778
Vamod
p6725
sssVand
p6726
(dp6727
I0
(dp6728
g2778
Vcc
p6729
sssg1091
(dp6730
I0
(dp6731
g2778
Vconj
p6732
sssVwith
p6733
(dp6734
I0
(dp6735
g2778
Vcase
p6736
ssssg2513
(dp6737
sg2515
(dp6738
Vand
p6739
(dp6740
I0
(dp6741
g2778
Vcc
p6742
sssVof
p6743
(dp6744
I0
(dp6745
g2778
Vcase
p6746
sssg1902
(dp6747
I0
(dp6748
g2778
Vcompound
p6749
sssg2694
(dp6750
I0
(dp6751
g2778
Vamod
p6752
sssg2642
(dp6753
I0
(dp6754
g2778
Vconj
p6755
ssssg2524
(dp6756
g216
(dp6757
I0
(dp6758
g2778
Vxcomp
p6759
sssVhave
p6760
(dp6761
I0
(dp6762
g2778
Vaux
p6763
sssVthey
p6764
(dp6765
I0
(dp6766
g2778
Vnsubj
p6767
sssg2736
(dp6768
I0
(dp6769
g2778
Vadvmod
p6770
ssssg2532
(dp6771
g1674
(dp6772
I0
(dp6773
g2778
Vnmod
p6774
sssg899
(dp6775
I0
(dp6776
g2778
Vmark
p6777
sssg1613
(dp6778
I0
(dp6779
g2778
Vnmod
p6780
ssI1
(dp6781
g2778
Vdobj
p6782
sssg2098
(dp6783
I0
(dp6784
g2778
Vcase
p6785
sssVthey
p6786
(dp6787
I0
(dp6788
g2778
Vnsubj
p6789
sssVin
p6790
(dp6791
I0
(dp6792
g2778
Vmark
p6793
ssI1
(dp6794
g2778
Vcase
p6795
sssVany
p6796
(dp6797
I0
(dp6798
g2778
Vdet
p6799
ssssg2550
(dp6800
sg2552
(dp6801
g531
(dp6802
I0
(dp6803
g2778
Vdobj
p6804
ssI1
(dp6805
g2778
Vdobj
p6806
sssVto
p6807
(dp6808
I0
(dp6809
g2778
Vmark
p6810
sssVby
p6811
(dp6812
I0
(dp6813
g2778
Vmark
p6814
sssg2125
(dp6815
I0
(dp6816
g2778
Vnmod
p6817
sssg624
(dp6818
I0
(dp6819
g2778
Vnmod
p6820
ssssg2563
(dp6821
sg2565
(dp6822
sg2567
(dp6823
Vto
p6824
(dp6825
I0
(dp6826
g2778
Vmark
p6827
sssg2449
(dp6828
I0
(dp6829
g2778
Vamod
p6830
sssg1040
(dp6831
I0
(dp6832
g2778
Vamod
p6833
sssVtheir
p6834
(dp6835
I0
(dp6836
g2778
Vnmod:poss
p6837
sssVbe
p6838
(dp6839
I0
(dp6840
g2778
Vcop
p6841
ssssg2575
(dp6842
sg2577
(dp6843
Vyou
p6844
(dp6845
I0
(dp6846
g2778
Vnsubj
p6847
sssg345
(dp6848
I0
(dp6849
g2778
Vxcomp
p6850
sssg2024
(dp6851
I0
(dp6852
g2778
Vmark
p6853
ssssg2583
(dp6854
sg2585
(dp6855
Vof
p6856
(dp6857
I0
(dp6858
g2778
Vcase
p6859
sssVthe
p6860
(dp6861
I0
(dp6862
g2778
Vdet
p6863
sssVown
p6864
(dp6865
I0
(dp6866
g2778
Vamod
p6867
sssVtheir
p6868
(dp6869
I0
(dp6870
g2778
Vnmod:poss
p6871
sssg103
(dp6872
I0
(dp6873
g2778
Vamod
p6874
ssssg2595
(dp6875
Vas
p6876
(dp6877
I0
(dp6878
g2778
Vadvmod
p6879
ssssg2599
(dp6880
sg2601
(dp6881
Vto
p6882
(dp6883
I0
(dp6884
g2778
Vcase
p6885
sssg2474
(dp6886
I0
(dp6887
g2778
Vnmod
p6888
sssg2754
(dp6889
I0
(dp6890
g2778
Vamod
p6891
ssssg2608
(dp6892
g2385
(dp6893
I0
(dp6894
g2778
Vcop
p6895
sssVthat
p6896
(dp6897
I0
(dp6898
g2778
Vmark
p6899
sssg94
(dp6900
I0
(dp6901
g2778
Vadvmod
p6902
sssg1951
(dp6903
I0
(dp6904
g2778
Vnsubj
p6905
sssg1634
(dp6906
I0
(dp6907
g2778
Vnmod
p6908
sssg1181
(dp6909
I0
(dp6910
g2778
Vxcomp
p6911
ssI1
(dp6912
g2778
Vccomp
p6913
sssVfeature
p6914
(dp6915
I0
(dp6916
g2778
Vnsubj
p6917
sssValien
p6918
(dp6919
I0
(dp6920
g2778
Vnmod
p6921
sssVare
p6922
(dp6923
I0
(dp6924
g2778
Vcop
p6925
sssg1118
(dp6926
I0
(dp6927
g2778
Vadvmod
p6928
sssg1832
(dp6929
I0
(dp6930
g2778
Vnmod
p6931
ssssg2629
(dp6932
sg2631
(dp6933
Vcontrol
p6934
(dp6935
I0
(dp6936
g2778
Vnmod
p6937
sssg1340
(dp6938
I0
(dp6939
g2778
Vdobj
p6940
sssVmore
p6941
(dp6942
I0
(dp6943
g2778
Vdobj
p6944
sssVto
p6945
(dp6946
I0
(dp6947
g2778
Vmark
p6948
sssg2010
(dp6949
I0
(dp6950
g2778
Vmark
p6951
ssssg2642
(dp6952
g1876
(dp6953
I0
(dp6954
g2778
Vamod
p6955
ssssg2646
(dp6956
sg2648
(dp6957
sg2650
(dp6958
g1570
(dp6959
I0
(dp6960
g2778
Vamod
p6961
sssVto
p6962
(dp6963
I0
(dp6964
g2778
Vmark
p6965
sssVthe
p6966
(dp6967
I0
(dp6968
g2778
Vdet
p6969
sssVbe
p6970
(dp6971
I0
(dp6972
g2778
Vcop
p6973
ssssg2658
(dp6974
g2153
(dp6975
I0
(dp6976
g2778
Vconj
p6977
sssg1469
(dp6978
I0
(dp6979
g2778
Vcsubj
p6980
sssg316
(dp6981
I0
(dp6982
g2778
Vdep
p6983
sssg1714
(dp6984
I0
(dp6985
g2778
Vadvmod
p6986
sssg2662
(dp6987
I0
(dp6988
g2778
Vcsubj
p6989
sssg2442
(dp6990
I0
(dp6991
g2778
Vcc
p6992
ssssg2669
(dp6993
sg2671
(dp6994
g696
(dp6995
I0
(dp6996
g2778
Vdet
p6997
ssI1
(dp6998
g2778
Vdet
p6999
sssg2385
(dp7000
I0
(dp7001
g2778
Vcop
p7002
sssVand
p7003
(dp7004
I0
(dp7005
g2778
Vcc
p7006
sssg1344
(dp7007
I0
(dp7008
g2778
Vamod
p7009
sssg664
(dp7010
I0
(dp7011
g2778
Vnmod
p7012
sssVbeing
p7013
(dp7014
I0
(dp7015
g2778
Vnmod
p7016
sssg2412
(dp7017
I0
(dp7018
g2778
Vcase
p7019
ssI1
(dp7020
g2778
Vcase
p7021
sssg1603
(dp7022
I0
(dp7023
g2778
Vnmod
p7024
sssVdavid
p7025
(dp7026
I0
(dp7027
g2778
Vamod
p7028
sssg110
(dp7029
I0
(dp7030
g2778
Vamod
p7031
sssg1294
(dp7032
I0
(dp7033
g2778
Vconj
p7034
sssVhouse
p7035
(dp7036
I0
(dp7037
g2778
Vcompound
p7038
sssg443
(dp7039
I0
(dp7040
g2778
Vnsubj
p7041
sssVby
p7042
(dp7043
I0
(dp7044
g2778
Vcase
p7045
ssssg2694
(dp7046
sg2696
(dp7047
Vof
p7048
(dp7049
I0
(dp7050
g2778
Vcase
p7051
ssssg2701
(dp7052
g1504
(dp7053
I0
(dp7054
g2778
Vamod
p7055
sssVthe
p7056
(dp7057
I0
(dp7058
g2778
Vdet
p7059
ssssg2707
(dp7060
sg2709
(dp7061
g482
(dp7062
I0
(dp7063
g2778
Vacl:relcl
p7064
sssg297
(dp7065
I0
(dp7066
g2778
Vamod
p7067
ssssg2714
(dp7068
g813
(dp7069
I0
(dp7070
g2778
Vdep
p7071
sssg2487
(dp7072
I0
(dp7073
g2778
Vadvmod
p7074
ssssg2719
(dp7075
Vearth
p7076
(dp7077
I0
(dp7078
g2778
Vcompound
p7079
sssVwith
p7080
(dp7081
I0
(dp7082
g2778
Vcase
p7083
sssg2749
(dp7084
I0
(dp7085
g2778
Vnmod
p7086
ssssg2726
(dp7087
Vof
p7088
(dp7089
I0
(dp7090
g2778
Vcase
p7091
sssVtheir
p7092
(dp7093
I0
(dp7094
g2778
Vnmod:poss
p7095
ssssg2731
(dp7096
Vfor
p7097
(dp7098
I0
(dp7099
g2778
Vcase
p7100
sssVthis
p7101
(dp7102
I0
(dp7103
g2778
Vdet
p7104
ssI1
(dp7105
g2778
Vdet
p7106
ssI2
(dp7107
g2778
Vdet
p7108
sssVone
p7109
(dp7110
I0
(dp7111
g2778
Vnummod
p7112
sssVbeing
p7113
(dp7114
I0
(dp7115
g2778
Vamod
p7116
sssVother
p7117
(dp7118
I0
(dp7119
g2778
Vamod
p7120
sssg2646
(dp7121
I0
(dp7122
g2778
Vcase
p7123
ssI1
(dp7124
g2778
Vcase
p7125
ssI2
(dp7126
g2778
Vcase
p7127
ssI3
(dp7128
g2778
Vcase
p7129
sssVthe
p7130
(dp7131
I0
(dp7132
g2778
Vdet
p7133
ssssg2754
(dp7134
sg2756
(dp7135
Vand
p7136
(dp7137
I0
(dp7138
g2778
Vcc
p7139
sssVthat
p7140
(dp7141
I0
(dp7142
g2778
Vmark
p7143
sssg1352
(dp7144
I0
(dp7145
g2778
Vconj
p7146
sssg1542
(dp7147
I0
(dp7148
g2778
Vxcomp
p7149
sssVthey
p7150
(dp7151
I0
(dp7152
g2778
Vnsubj
p7153
sssg877
(dp7154
I0
(dp7155
g2778
Vdep
p7156
ssssg2765
(dp7157
Vof
p7158
(dp7159
I0
(dp7160
g2778
Vcase
p7161
sssssS'edge'
p7162
g2774
sS'graph'
p7163
(dp7164
sS'adjlist_dict_factory'
p7165
g2770
sS'adj'
p7166
g2774
sS'pred'
p7167
(dp7168
g8
(dp7169
sg16
(dp7170
g1716
g5519
ssg18
(dp7171
g413
g3401
sg464
g3549
ssg36
(dp7172
g1548
g5273
sVdescription
p7173
g3872
sVbeing
p7174
g6095
sg2623
g6919
sg129
g2984
sg4329
g6237
sg1294
g4852
sg1986
g5926
sg377
g3409
ssg79
(dp7175
sg88
(dp7176
Vinvolve
p7177
g3690
sg2385
g6560
sg147
g2990
sg1024
g4466
sg6760
g4839
ssg90
(dp7178
g159
g3047
sVreptile
p7179
g6631
sg166
g3056
sg1613
g5378
sValien
p7180
g2863
sg1280
g4856
sg176
g3073
sVmover
p7181
g6963
sVtrust
p7182
g5698
sg1832
g5683
sg1849
g5714
sg324
g3336
sg345
g3358
sg2463
g6654
sg2026
g5984
sg1042
g4503
sg2479
g6683
sg1489
g5187
sg2039
g6006
sg2567
g6825
sg1078
g4559
sg361
g3376
sg654
g3857
sg1360
g4997
sg216
g3150
sg229
g3174
sg1510
g5223
sg2366
g6543
sg1390
g5046
sg551
g3679
sg2552
g6808
sg2637
g6946
sg254
g3224
sg1775
g5608
sVclass
p7183
g5078
sg186
g3116
sg489
g3594
sVinvolve
p7184
g3700
sVisland
p7185
g3623
sg1181
g4702
sg1704
g5501
sg129
g3010
sg722
g3974
sg737
g3998
sVproblem
p7186
g6883
sg1856
g5727
sg1005
g4425
ssg92
(dp7187
g224
g3169
ssg94
(dp7188
g909
g4260
sg2613
g6900
ssg96
(dp7189
sg103
(dp7190
g2585
g6872
ssg105
(dp7191
Vreport
p7192
g5288
ssg110
(dp7193
g2684
g7029
ssg116
(dp7194
g1384
g5038
ssg121
(dp7195
Vhead
p7196
g6723
sg2259
g6338
ssg123
(dp7197
Vservant
p7198
g4147
sg1856
g5730
sg1628
g5393
sVgrey
p7199
g4717
ssg155
(dp7200
sg159
(dp7201
g1721
g5512
ssg164
(dp7202
g110
g2958
sg446
g3398
ssg166
(dp7203
g216
g3157
ssg171
(dp7204
g216
g3146
ssg176
(dp7205
Vwant
p7206
g3752
ssg182
(dp7207
g1120
g4617
ssg184
(dp7208
g1824
g5674
ssg186
(dp7209
Vaction
p7210
g6043
sVreptilian
p7211
g6212
sg330
g3319
sg1376
g5030
sg1716
g5522
ssg216
(dp7212
Voffer
p7213
g6757
ssg224
(dp7214
g596
g3759
ssg229
(dp7215
Vtry
p7216
g4242
ssg236
(dp7217
g1905
g5795
sg1996
g5948
ssg238
(dp7218
Vsubstance
p7219
g3240
ssg245
(dp7220
g79
g2917
sVrebuff
p7221
g4638
ssg247
(dp7222
sg254
(dp7223
Vappear
p7224
g3133
ssg261
(dp7225
g176
g3076
ssg265
(dp7226
g291
g3273
ssg267
(dp7227
g330
g3322
ssg273
(dp7228
g247
g3212
ssg275
(dp7229
Vdeal
p7230
g6378
ssg281
(dp7231
g903
g4248
ssg283
(dp7232
g2366
g6539
ssg287
(dp7233
g1679
g5464
ssg291
(dp7234
g446
g3429
ssg297
(dp7235
Vclass
p7236
g5088
sg2709
g7065
ssg299
(dp7237
g998
g4441
ssg301
(dp7238
g1537
g5260
ssg306
(dp7239
Vinterest
p7240
g5779
ssg310
(dp7241
Vrefine
p7242
g3726
ssg314
(dp7243
g110
g2962
sVadvance
p7244
g4385
sg1019
g4457
sVevolve
p7245
g4180
ssg316
(dp7246
g2662
g6981
ssg324
(dp7247
g1352
g4967
sg310
g3294
ssg343
(dp7248
g2321
g6447
sg820
g4120
sg1595
g5349
sg1066
g4549
sg572
g3713
sg1113
g4606
sg1376
g5019
sg2360
g6514
ssg345
(dp7249
g2577
g6848
ssg350
(dp7250
g774
g4059
sg2238
g6330
sg685
g3903
sg868
g4205
ssg352
(dp7251
Vclass
p7252
g5070
ssg354
(dp7253
g1459
g5153
ssg356
(dp7254
g1529
g5247
ssg361
(dp7255
g1306
g4901
ssg365
(dp7256
g794
g4088
ssg367
(dp7257
sg375
(dp7258
g1662
g5445
sg194
g3127
ssg377
(dp7259
g2385
g6580
sg1792
g5631
sg1548
g5277
sg975
g4392
sVserve
p7260
g4586
sg2684
g7039
sg1620
g5421
sg1181
g4744
sValien
p7261
g2895
sg943
g4323
sg1679
g5461
sg1024
g4469
sg847
g4167
sg387
g3445
ssg453
(dp7262
g455
g3540
sg2637
g6942
sg1146
g4662
sg803
g4100
sg1960
g5888
sVrefine
p7263
g3741
sg1968
g5909
sg1019
g4461
ssg455
(dp7264
sg464
(dp7265
Valien
p7266
g2859
ssg473
(dp7267
Vabduct
p7268
g6299
ssg480
(dp7269
g2306
g6429
ssg482
(dp7270
g2709
g7062
ssg489
(dp7271
g1031
g4481
sg551
g3675
ssg496
(dp7272
g1767
g5578
sg116
g2967
sg919
g4274
sVinterest
p7273
g5772
sg2731
g7102
sg383
g3477
ssg498
(dp7274
Vhold
p7275
g3582
sg2276
g6375
ssg506
(dp7276
g1406
g5061
ssg508
(dp7277
Vevolve
p7278
g4183
ssg512
(dp7279
g1595
g5345
ssg514
(dp7280
g330
g3352
ssg516
(dp7281
g1327
g4920
ssg525
(dp7282
g2342
g6492
ssg529
(dp7283
g135
g3035
ssg531
(dp7284
g2637
g6935
sg2552
g6802
sg1289
g4861
ssg546
(dp7285
g2031
g5991
ssg551
(dp7286
g969
g4374
ssg557
(dp7287
g79
g2911
sg210
g3120
ssg569
(dp7288
g2145
g6160
sVgrey
p7289
g4698
sg2469
g6674
ssg577
(dp7290
sg589
(dp7291
g1031
g4498
ssg596
(dp7292
g722
g3983
ssg603
(dp7293
g2160
g6194
sg229
g3184
sVgrow
p7294
g6135
ssg619
(dp7295
g1031
g4484
ssg624
(dp7296
Vgain
p7297
g6818
ssg629
(dp7298
g8
g2787
sg2613
g6915
sg998
g4428
ssg646
(dp7299
Vabduct
p7300
g6310
ssg652
(dp7301
g377
g3436
ssg654
(dp7302
g1321
g4946
ssg660
(dp7303
g729
g3994
ssg664
(dp7304
g2671
g7010
ssg672
(dp7305
Vtry
p7306
g4224
ssg674
(dp7307
g603
g3777
ssg681
(dp7308
g681
g3908
ssg694
(dp7309
g1459
g5147
ssg696
(dp7310
g1253
g4802
sg603
g3767
sg1698
g5486
sg2342
g6466
sg2671
g6995
sg1066
g4515
sg356
g3368
sg123
g2976
sg387
g3462
sg794
g4079
sg1787
g5620
sg943
g4278
sg957
g4355
sg254
g3220
sg1495
g5208
sg1139
g4653
sVgrey
p7311
g4666
sg1806
g5650
sg1109
g4598
sg839
g4155
sg1968
g5892
sg2102
g6086
ssg698
(dp7312
g1792
g5627
ssg708
(dp7313
sg714
(dp7314
g1878
g5762
sg4648
g5001
ssg716
(dp7315
Vtechnology
p7316
g5975
ssg722
(dp7317
g2385
g6574
ssg729
(dp7318
g1729
g5537
sVgrey
p7319
g4725
sg998
g4438
ssg742
(dp7320
g2013
g5969
ssg744
(dp7321
g708
g3957
ssg749
(dp7322
g1439
g5124
sVthousand
p7323
g5805
sg2125
g6114
ssg751
(dp7324
Vthousand
p7325
g5808
ssg755
(dp7326
g1113
g4609
ssg762
(dp7327
Vcontrol
p7328
g3664
sg624
g3810
ssg764
(dp7329
Vconsider
p7330
g2818
ssg766
(dp7331
g2493
g6701
ssg768
(dp7332
g301
g3282
ssg770
(dp7333
g1806
g5653
ssg772
(dp7334
Vservant
p7335
g4136
ssg774
(dp7336
g123
g3006
ssg781
(dp7337
g1421
g5091
ssg783
(dp7338
g4877
g4320
sVclass
p7339
g5098
ssg785
(dp7340
g1474
g5180
ssg787
(dp7341
g716
g3965
ssg789
(dp7342
g1289
g4825
ssg794
(dp7343
g2385
g6567
ssg803
(dp7344
Vone
p7345
g4452
ssg807
(dp7346
g8
g2784
sg6760
g4829
sg1024
g4477
sg1306
g4905
sg1321
g4950
sg603
g3789
sg26
g2811
sg330
g3345
sg206
g3094
sg1346
g4977
sg1721
g5532
sg367
g3389
sg1376
g5027
sg2500
g6719
sg851
g4176
sg2524
g6765
sg2542
g6787
sg685
g3921
sg1781
g5616
sg2244
g6321
sg988
g4415
sVtry
p7347
g4237
sg729
g4006
sg2756
g7151
ssg809
(dp7348
g1139
g4656
ssg813
(dp7349
g2714
g7069
sg1868
g5746
ssg818
(dp7350
Vgrow
p7351
g6138
ssg820
(dp7352
g1443
g5116
ssg825
(dp7353
Vgrey
p7354
g4721
sg247
g3206
ssg839
(dp7355
g2500
g6716
ssg845
(dp7356
g1246
g4797
ssg847
(dp7357
g2259
g6349
ssg851
(dp7358
g110
g2955
sg446
g3405
sg1767
g5571
ssg863
(dp7359
g316
g3302
sVvariety
p7360
g7036
ssg868
(dp7361
g26
g2824
ssg873
(dp7362
g79
g2914
ssg875
(dp7363
g1300
g4912
ssg877
(dp7364
g2756
g7154
ssg879
(dp7365
g2479
g6690
ssg881
(dp7366
Vservant
p7367
g4140
sVseem
p7368
g4936
ssg899
(dp7369
g2542
g6775
ssg901
(dp7370
g1510
g5230
ssg903
(dp7371
Vinhabit
p7372
g5234
ssg909
(dp7373
g4329
g6220
ssg913
(dp7374
g654
g3860
ssg919
(dp7375
g2366
g6548
ssg923
(dp7376
g1327
g4953
sg1274
g4878
ssg952
(dp7377
g903
g4251
ssg957
(dp7378
Vview
p7379
g5326
ssg965
(dp7380
Vdescription
p7381
g3879
ssg969
(dp7382
g744
g4020
ssg975
(dp7383
sg985
(dp7384
Vconsider
p7385
g2796
sg2453
g6641
ssg994
(dp7386
g2244
g6317
ssg996
(dp7387
g863
g4197
sVvariety
p7388
g7026
ssg998
(dp7389
g2048
g6028
sg737
g4012
sVgrey
p7390
g4753
ssg1013
(dp7391
g455
g3530
sg577
g3730
sg2736
g7110
ssg1019
(dp7392
g1767
g5585
ssg1024
(dp7393
sg1031
(dp7394
sg1040
(dp7395
g2567
g6831
ssg1042
(dp7396
g4329
g6229
ssg1046
(dp7397
Vcreate
p7398
g5723
sg2039
g6012
ssg1052
(dp7399
g1300
g4895
sVcall
p7400
g3392
sVsystem
p7401
g4536
sVneighbor
p7402
g6625
sg722
g3980
ssg1076
(dp7403
g1968
g5902
ssg1078
(dp7404
g261
g3235
ssg1083
(dp7405
g1753
g5560
sg820
g4116
sg2330
g6485
sg2567
g6835
sg503
g3611
sg1951
g5851
sVfeature
p7406
g3822
sg2005
g5961
sg2591
g6869
sg4877
g4295
sg2130
g6127
sg2726
g7093
sg789
g4072
sg1820
g5668
sg615
g3781
ssg1085
(dp7407
g424
g3442
ssg1087
(dp7408
g129
g3017
ssg1089
(dp7409
Visland
p7410
g3634
ssg1091
(dp7411
Vhead
p7412
g6730
ssg1096
(dp7413
g774
g4063
sg202
g3102
sg2385
g6564
sg1529
g5256
sVservant
p7414
g4129
sVclone
p7415
g3895
sg1105
g4594
sVgrow
p7416
g6148
sVtry
p7417
g4221
sg464
g3553
sg1674
g5454
sg716
g3969
sg2073
g6061
sg2756
g7141
sVhold
p7418
g3589
sg2623
g6897
sg603
g3774
ssg1098
(dp7419
Valien
p7420
g2856
sg1642
g5370
ssg1109
(dp7421
g1542
g5267
sg6760
g4864
ssg1118
(dp7422
g2608
g6926
ssg1120
(dp7423
g2385
g6577
ssg1126
(dp7424
g413
g3433
sg1500
g5215
sVconcern
p7425
g5479
ssg1128
(dp7426
g171
g3064
ssg1139
(dp7427
g4648
g4993
ssg1144
(dp7428
g1005
g4421
ssg1146
(dp7429
g1976
g5899
ssg1150
(dp7430
g1792
g5637
sVshort
p7431
g3936
sg2084
g6076
sVservant
p7432
g4133
sg377
g3492
sg1105
g4579
sVabduct
p7433
g6292
sVtrain
p7434
g3573
sg1274
g4846
sg96
g2930
sg2493
g6708
sg2608
g6909
sg1421
g5074
sg2366
g6534
ssg1224
(dp7435
g1537
g5263
ssg1229
(dp7436
g2306
g6422
ssg1231
(dp7437
g159
g3050
ssg1237
(dp7438
g1662
g5438
ssg1242
(dp7439
g508
g3616
sVgrow
p7440
g6144
ssg1251
(dp7441
Vcontrol
p7442
g3648
sg1595
g5342
sg26
g2793
sg1996
g5944
sValien
p7443
g2829
sVrefine
p7444
g3718
sg1268
g4814
sg79
g2908
sg1321
g4917
sg2321
g6443
sg1031
g4488
sg186
g3090
sg2684
g7004
sg2031
g5995
sVfeature
p7445
g3815
sg1732
g5516
sg1376
g5015
sVevolve
p7446
g4172
sVhead
p7447
g6727
sVform
p7448
g6740
sg330
g3316
sg464
g3545
sVabduct
p7449
g6285
sVrebuff
p7450
g4626
sg455
g3524
sVshort
p7451
g3928
sVservant
p7452
g4125
sg498
g3604
sVgrey
p7453
g4672
sg316
g3305
sg1960
g5881
sVbecome
p7454
g6364
sg2756
g7137
ssg1253
(dp7455
g345
g3361
ssg1259
(dp7456
g8
g2780
sVabduct
p7457
g6303
sVevolve
p7458
g4187
sVclone
p7459
g3891
sg2684
g7032
sVoffer
p7460
g6761
sVtrain
p7461
g3577
sg4329
g6254
sg6760
g4871
sg4648
g5005
sg1231
g4774
sg868
g4201
ssg1300
(dp7462
Vevolve
p7463
g4190
sVbecome
p7464
g6370
ssg1311
(dp7465
Valien
p7466
g2903
ssg1336
(dp7467
g2073
g6057
sg330
g3349
sg1868
g5753
sg464
g3564
ssg1338
(dp7468
g2532
g6797
sg744
g4017
ssg1340
(dp7469
Vinfluence
p7470
g6938
ssg1344
(dp7471
g2684
g7007
ssg1346
(dp7472
g2756
g7144
ssg1356
(dp7473
g2306
g6414
ssg1358
(dp7474
g1049
g4507
ssg1360
(dp7475
g1346
g4980
sVrebuff
p7476
g4649
ssg1372
(dp7477
Vappear
p7478
g3130
ssg1374
(dp7479
g1960
g5884
ssg1376
(dp7480
sg1384
(dp7481
g2031
g6001
ssg1390
(dp7482
g6760
g4822
ssg1396
(dp7483
g1610
g5357
ssg1398
(dp7484
g1824
g5671
ssg1400
(dp7485
Vserve
p7486
g4583
sg1479
g5164
ssg1402
(dp7487
g283
g3261
ssg1404
(dp7488
Vsystem
p7489
g4539
ssg1406
(dp7490
Vfeature
p7491
g3825
ssg1410
(dp7492
g1246
g4786
ssg1412
(dp7493
g1317
g4956
sg2366
g6555
ssg1428
(dp7494
g186
g3086
ssg1430
(dp7495
g794
g4085
ssg1432
(dp7496
g729
g4009
ssg1434
(dp7497
g534
g3667
sg166
g3060
sg2463
g6661
sg1634
g5405
sg1268
g4874
sg816
g4110
sg1991
g5939
sVhappening
p7498
g7077
sg26
g2815
ssg1459
(dp7499
g755
g4038
ssg1467
(dp7500
g1996
g5951
ssg1469
(dp7501
g316
g3308
sg1078
g4562
sg2662
g6978
ssg1484
(dp7502
g2238
g6324
ssg1495
(dp7503
g1469
g5177
ssg1500
(dp7504
g774
g4056
ssg1504
(dp7505
g2704
g7053
ssg1506
(dp7506
Valien
p7507
g2866
ssg1508
(dp7508
g1091
g4573
ssg1510
(dp7509
g998
g4444
ssg1516
(dp7510
g794
g4091
ssg1521
(dp7511
g142
g3038
ssg1525
(dp7512
g2153
g6166
sg210
g3098
sg1529
g5253
ssg1527
(dp7513
g123
g2993
ssg1529
(dp7514
g2183
g6223
ssg1537
(dp7515
g2031
g5998
ssg1542
(dp7516
g2756
g7147
ssg1546
(dp7517
Vtrust
p7518
g5701
ssg1548
(dp7519
g402
g3473
sVgrey
p7520
g4678
ssg1554
(dp7521
g998
g4431
ssg1560
(dp7522
g1459
g5144
ssg1562
(dp7523
g96
g2942
sg2226
g6307
sVview
p7524
g5333
ssg1570
(dp7525
Vmover
p7526
g6959
ssg1572
(dp7527
g147
g2996
ssg1574
(dp7528
Vconsider
p7529
g2803
ssg1580
(dp7530
g1390
g5052
ssg1586
(dp7531
g2453
g6637
ssg1588
(dp7532
Vadvance
p7533
g4395
ssg1595
(dp7534
sg1603
(dp7535
Vtrust
p7536
g5704
sg2346
g6479
sg1484
g5198
sVvariety
p7537
g7022
sVregard
p7538
g6778
sg2039
g6015
sg291
g3276
sg1968
g5905
sg2102
g6089
sg1781
g5604
sg2493
g6704
sg2620
g6906
sVseem
p7539
g4927
sg988
g4399
ssg1662
(dp7540
g1321
g4943
sg418
g3418
ssg1674
(dp7541
g2532
g6772
ssg1679
(dp7542
g1595
g5353
sVconsider
p7543
g2807
sValien
p7544
g2874
sg1662
g5442
sVrefine
p7545
g3734
sg1294
g4887
sg603
g3785
sg2321
g6458
sg1346
g4971
sg1868
g5757
sg646
g3851
sg1024
g4473
sVcall
p7546
g3385
sg2493
g6712
sg418
g3422
sg1376
g5023
sg2366
g6552
sVserve
p7547
g4590
sg464
g3557
sVbase
p7548
g4305
sg4329
g6265
sg96
g2938
sg1781
g5612
sVadvance
p7549
g4389
sVshort
p7550
g3943
sg988
g4411
sVservant
p7551
g4151
sg1942
g5859
sVtry
p7552
g4231
sg135
g3021
sg729
g4002
sg2613
g6923
ssg1685
(dp7553
g1787
g5623
ssg1689
(dp7554
g4329
g6251
ssg1691
(dp7555
g210
g3139
ssg1698
(dp7556
g1762
g5574
ssg1704
(dp7557
g1942
g5843
sg1732
g5528
ssg1710
(dp7558
g1443
g5140
ssg1712
(dp7559
g1469
g5161
ssg1714
(dp7560
g2662
g6984
ssg1716
(dp7561
Vshort
p7562
g3939
ssg1736
(dp7563
g434
g3439
ssg1738
(dp7564
Vbecome
p7565
g6367
ssg1742
(dp7566
g147
g3026
ssg1746
(dp7567
g1960
g5874
ssg1748
(dp7568
g4648
g5008
ssg1753
(dp7569
g1434
g5105
ssg1758
(dp7570
g681
g3899
ssg1760
(dp7571
g1031
g4491
ssg1762
(dp7572
Valien
p7573
g2841
sg2073
g6054
ssg1773
(dp7574
Vgrow
p7575
g6141
ssg1775
(dp7576
g194
g3136
ssg1787
(dp7577
g681
g3914
ssg1792
(dp7578
sg1802
(dp7579
g1647
g5418
ssg1804
(dp7580
Vcountry
p7581
g5914
sg624
g3807
ssg1806
(dp7582
g338
g3332
ssg1812
(dp7583
g1920
g5812
ssg1814
(dp7584
g306
g3290
ssg1816
(dp7585
g186
g3105
ssg1820
(dp7586
g206
g3108
sg105
g2950
ssg1829
(dp7587
g1624
g5415
sg2353
g6505
sg2613
g6929
sg2360
g6518
ssg1839
(dp7588
Valien
p7589
g2832
ssg1847
(dp7590
g1253
g4805
ssg1849
(dp7591
g8
g2776
ssg1854
(dp7592
Vrefine
p7593
g3723
ssg1856
(dp7594
g229
g3181
sg2039
g6009
ssg1866
(dp7595
Vcontrol
p7596
g3654
ssg1868
(dp7597
sg1876
(dp7598
g2642
g6953
sg943
g4301
ssg1878
(dp7599
Vinvolve
p7600
g3704
sg1451
g5128
sVclone
p7601
g3887
sg685
g3917
ssg1886
(dp7602
g2288
g6392
sg1479
g5171
ssg1897
(dp7603
g1698
g5493
ssg1902
(dp7604
g229
g3177
sg2479
g6687
sg1360
g4987
sVform
p7605
g6747
ssg1910
(dp7606
Vbase
p7607
g4281
ssg1912
(dp7608
g1237
g4778
ssg1914
(dp7609
g1390
g5049
ssg1920
(dp7610
g1306
g4898
ssg1924
(dp7611
g1459
g5150
ssg1926
(dp7612
Vagreement
p7613
g6602
ssg1931
(dp7614
g1181
g4675
ssg1937
(dp7615
Vadvance
p7616
g4379
sVshort
p7617
g3932
sg2321
g6451
sg1595
g5338
sVgrey
p7618
g4681
sVentity
p7619
g5294
sValien
p7620
g2845
sg943
g4288
sg952
g4335
sg1868
g5743
sg418
g3508
sg4329
g6248
ssg1942
(dp7621
g2321
g6454
sg2623
g6903
ssg1954
(dp7622
g619
g3800
sg142
g3014
sg988
g4407
sVservant
p7623
g4144
sVgrey
p7624
g4708
sg2595
g6877
sg2353
g6502
sg957
g4352
sg2048
g6025
sVzeta
p7625
g5693
sg1421
g5084
ssg1956
(dp7626
g2153
g6184
sg210
g3112
sg1529
g5244
ssg1958
(dp7627
g2145
g6153
sg2306
g6419
ssg1960
(dp7628
g455
g3533
ssg1968
(dp7629
g324
g3325
sVrefine
p7630
g3737
ssg1979
(dp7631
g4877
g4291
ssg1986
(dp7632
Vrebuff
p7633
g4641
sg464
g3560
ssg1996
(dp7634
g4877
g4284
ssg2003
(dp7635
g1031
g4495
sg2153
g6177
sg338
g3329
sg247
g3216
sVinterest
p7636
g5783
sg176
g3080
sg1311
g4931
ssg2005
(dp7637
g238
g3201
ssg2010
(dp7638
g1996
g5955
sg2400
g6585
sg1762
g5589
sg1816
g5663
sVcountry
p7639
g5921
sg1856
g5737
sVregard
p7640
g6791
sVinfluence
p7641
g6949
sg1580
g5321
sg1237
g4782
sg2474
g6678
sVconfrontation
p7642
g6607
sg1253
g4809
sg2130
g6131
sg171
g3068
sg2313
g6426
sVisland
p7643
g3631
sg839
g4162
ssg2015
(dp7644
Vcall
p7645
g3381
ssg2017
(dp7646
Valien
p7647
g2891
ssg2019
(dp7648
g1284
g4883
ssg2024
(dp7649
g2577
g6851
sg596
g3763
ssg2026
(dp7650
g716
g3962
ssg2031
(dp7651
g155
g3042
ssg2039
(dp7652
Vtry
p7653
g4227
ssg2046
(dp7654
g135
g3003
ssg2048
(dp7655
g105
g2947
ssg2054
(dp7656
g287
g3265
ssg2056
(dp7657
g660
g3868
ssg2060
(dp7658
g789
g4075
ssg2062
(dp7659
Vagreement
p7660
g6599
ssg2064
(dp7661
g2026
g5980
sg1574
g5302
ssg2073
(dp7662
g839
g4158
ssg2080
(dp7663
g96
g2934
sg1521
g5238
ssg2082
(dp7664
g1748
g5552
ssg2084
(dp7665
Vconcern
p7666
g5482
ssg2090
(dp7667
Vdeal
p7668
g6381
ssg2092
(dp7669
g2160
g6172
sg2031
g5988
sg708
g3951
sg316
g3299
sg2283
g6385
sg2183
g6226
sVwant
p7670
g3745
sg1120
g4614
ssg2094
(dp7671
Vclaim
p7672
g3671
sg2255
g6353
sg301
g3286
ssg2096
(dp7673
g2334
g6482
ssg2098
(dp7674
g2532
g6783
ssg2100
(dp7675
g1484
g5191
sg1642
g5425
sg1580
g5314
sValien
p7676
g2886
sg755
g4035
sg1300
g4909
sg1434
g5135
sVmover
p7677
g6967
sg612
g3793
sg2321
g6462
sg2469
g6669
sg1049
g4511
sg646
g3844
sg2489
g6697
sg1832
g5687
sg392
g3512
sg2360
g6511
sg1384
g5035
sg238
g3194
sg2704
g7057
sg2404
g6592
sVreptilian
p7678
g6202
sg1931
g5826
sg224
g3166
sg2222
g6277
sVone
p7679
g4449
sg1421
g5095
sg2145
g6157
sg455
g3537
sVshort
p7680
g3947
sg2084
g6072
sVisland
p7681
g3627
sg275
g3249
sg1942
g5863
sVgrey
p7682
g4729
sg2306
g6435
sg2585
g6861
sg1224
g4762
sg135
g3030
sg2259
g6346
sg2740
g7131
sg1986
g5934
sg1231
g4771
ssg2102
(dp7683
g1294
g4890
ssg2107
(dp7684
g2153
g6169
sg988
g4403
sVwant
p7685
g3749
ssg2109
(dp7686
Vdescription
p7687
g3882
sVvariety
p7688
g7014
sg2130
g6123
sg957
g4344
sg2740
g7114
sg2048
g6021
sVconcern
p7689
g5475
sg2366
g6530
ssg2120
(dp7690
g619
g3803
ssg2122
(dp7691
g238
g3198
sg1340
g4962
sg4986
g5799
sg1548
g5281
sg2338
g6489
sVbeing
p7692
g6108
sg1792
g5641
sVstandard
p7693
g4269
sValien
p7694
g2880
sg755
g4042
sg2552
g6815
sg439
g3426
ssg2128
(dp7695
g2165
g6188
sVseem
p7696
g4940
sg1942
g5855
sg4329
g6240
sg1284
g4835
ssg2130
(dp7697
g1662
g5435
ssg2136
(dp7698
g1878
g5765
ssg2145
(dp7699
g1066
g4518
ssg2151
(dp7700
g2459
g6649
ssg2153
(dp7701
g2658
g6975
ssg2170
(dp7702
g2238
g6314
sg424
g3455
ssg2181
(dp7703
g1574
g5309
ssg2183
(dp7704
g1792
g5644
sg2435
g6622
sVbeing
p7705
g6104
sg316
g3311
sg4877
g4330
sg1274
g4867
ssg2215
(dp7706
Vfeature
p7707
g3831
ssg2217
(dp7708
g498
g3607
sVcountry
p7709
g5917
ssg2226
(dp7710
sg2238
(dp7711
g1268
g4819
ssg2249
(dp7712
g1806
g5656
ssg2251
(dp7713
g2160
g6180
ssg2253
(dp7714
g202
g3123
ssg2255
(dp7715
g1931
g5833
sVfeature
p7716
g3828
ssg2265
(dp7717
sg2274
(dp7718
Vreport
p7719
g5285
ssg2276
(dp7720
sg2283
(dp7721
sg2288
(dp7722
g1574
g5306
sg1113
g4602
sg1474
g5167
ssg2292
(dp7723
g1704
g5497
ssg2297
(dp7724
g1010
g4434
ssg2301
(dp7725
Valien
p7726
g2838
ssg2303
(dp7727
g254
g3227
sg2125
g6117
sg722
g3977
ssg2319
(dp7728
g2292
g6396
sg1942
g5867
ssg2321
(dp7729
sg2330
(dp7730
Valien
p7731
g2835
sVreptilian
p7732
g6198
sg923
g4314
sg1580
g5317
ssg2351
(dp7733
g1753
g5564
sg2306
g6411
sVsystem
p7734
g4529
sg2005
g5965
sg1674
g5450
sg2740
g7098
sg1384
g5041
sg2366
g6526
ssg2353
(dp7735
g4329
g6245
sVgrey
p7736
g4714
ssg2358
(dp7737
Vworld
p7738
g6280
ssg2360
(dp7739
g4329
g6261
ssg2366
(dp7740
g1120
g4620
sg392
g3448
sg186
g3142
ssg2385
(dp7741
g1489
g5204
sVinvolve
p7742
g3687
sVmover
p7743
g6971
sVtrust
p7744
g5708
sg2684
g7000
sg216
g3161
sVclass
p7745
g5067
sg774
g4053
sg654
g3864
sg2073
g6051
sg392
g3451
sg2366
g6522
sg794
g4082
sg247
g3209
sVtrain
p7746
g3569
sg4329
g6217
sVbecome
p7747
g6360
sg254
g3231
sg1775
g5595
sVabduct
p7748
g6288
sg2567
g6839
sVrebuff
p7749
g4630
sg455
g3527
sVisland
p7750
g3638
sg596
g3756
sVtry
p7751
g4214
sg1704
g5505
sg1960
g5877
sg737
g3988
sg2623
g6893
ssg2400
(dp7752
g1926
g5821
ssg2404
(dp7753
g965
g4362
sg1529
g5250
ssg2412
(dp7754
g1489
g5195
sVbeing
p7755
g6099
sg1942
g5847
sg1616
g5400
sg751
g4026
sValien
p7756
g2853
sg755
g4031
sg574
g3709
sg1685
g5469
sg1448
g5120
sg1849
g5718
sg2338
g6474
sg2671
g7017
sg216
g3154
sg1742
g5547
sVinterest
p7757
g5776
sg2699
g7049
sg383
g3487
sg238
g3190
sVdescription
p7758
g3876
sVform
p7759
g6744
sg1767
g5582
sg943
g4311
sg952
g4339
sg957
g4348
sg809
g4106
sg2222
g6273
sg1824
g5678
sg2765
g7159
sg2726
g7089
sg2431
g6615
sg116
g2971
sg1162
g4691
sg2585
g6857
sg291
g3270
sg135
g3000
sg2259
g6342
sg1968
g5896
sg2070
g6047
sg1991
g5930
ssg2414
(dp7760
Vcontrol
p7761
g3657
ssg2420
(dp7762
g1616
g5396
ssg2425
(dp7763
Vvariety
p7764
g7043
sg863
g4194
sVcreate
p7765
g5734
sg903
g4255
sg1650
g5374
sVgrey
p7766
g4748
sVstandard
p7767
g4265
sg1242
g4794
sg429
g3459
sVgain
p7768
g6812
ssg2427
(dp7769
g1224
g4758
sg410
g3470
sg2334
g6470
sg1443
g5109
sg2404
g6589
ssg2429
(dp7770
g2056
g6033
sg1510
g5227
sg2297
g6405
sg1940
g5838
sg2084
g6068
ssg2431
(dp7771
g1231
g4767
ssg2435
(dp7772
sg2442
(dp7773
g2658
g6990
sg794
g4095
sg2453
g6645
sVsystem
p7774
g4553
sVinterest
p7775
g5787
sVabduct
p7776
g6296
ssg2444
(dp7777
g525
g3642
ssg2449
(dp7778
g2591
g6865
sg2567
g6828
ssg2451
(dp7779
g615
g3796
ssg2453
(dp7780
g957
g4358
ssg2459
(dp7781
g1091
g4570
ssg2463
(dp7782
Vtry
p7783
g4217
ssg2469
(dp7784
Vproblem
p7785
g6886
sVneighbor
p7786
g6619
ssg2479
(dp7787
g1738
g5542
ssg2485
(dp7788
g2385
g6571
sg1317
g4924
sg1679
g5458
sg4329
g6233
ssg2487
(dp7789
g2714
g7072
ssg2489
(dp7790
g1883
g5768
ssg2493
(dp7791
sg2500
(dp7792
sg2505
(dp7793
g729
g3991
ssg2513
(dp7794
g542
g3651
ssg2515
(dp7795
g275
g3256
ssg2524
(dp7796
sg2532
(dp7797
Vadvance
p7798
g4382
sg1775
g5599
sg1360
g4990
ssg2550
(dp7799
Vrebuff
p7800
g4634
sVconsider
p7801
g2800
sg1274
g4842
sVview
p7802
g5330
ssg2552
(dp7803
g324
g3341
sg2463
g6658
ssg2563
(dp7804
g1072
g4542
ssg2565
(dp7805
g493
g3598
sVhead
p7806
g6734
sg1698
g5490
sVrebuff
p7807
g4645
sVhappening
p7808
g7081
sVreptilian
p7809
g6208
sg275
g3253
sg1603
g5362
sg637
g3839
sg2292
g6400
sg1931
g5830
sg1246
g4790
sg1926
g5818
ssg2567
(dp7810
g26
g2821
ssg2575
(dp7811
Vsystem
p7812
g4532
ssg2577
(dp7813
g551
g3682
ssg2583
(dp7814
g685
g3911
ssg2585
(dp7815
g542
g3660
sg2265
g6357
ssg2595
(dp7816
g1662
g5432
ssg2599
(dp7817
g1459
g5156
ssg2601
(dp7818
g1868
g5749
ssg2608
(dp7819
g2283
g6388
sg943
g4326
sg2346
g6496
sg637
g3818
ssg2629
(dp7820
Vaction
p7821
g6040
sVsubstance
p7822
g3243
ssg2631
(dp7823
Vinvolve
p7824
g3696
sg1725
g5525
ssg2642
(dp7825
Vform
p7826
g6753
ssg2646
(dp7827
g2731
g7121
ssg2648
(dp7828
g1072
g4545
ssg2650
(dp7829
Vhold
p7830
g3585
ssg2658
(dp7831
g2658
g6987
ssg2669
(dp7832
g603
g3770
ssg2671
(dp7833
g79
g2921
sg1495
g5211
ssg2694
(dp7834
Valien
p7835
g2870
sg4329
g6258
sVform
p7836
g6750
sg2749
g7118
ssg2696
(dp7837
g356
g3371
sg2577
g6845
sg1474
g5174
sg969
g4367
ssg2701
(dp7838
g1052
g4521
ssg2707
(dp7839
g708
g3954
sg969
g4371
ssg2709
(dp7840
Vdefine
p7841
g5791
ssg2714
(dp7842
g1662
g5429
ssg2719
(dp7843
Vinvolve
p7844
g3693
ssg2726
(dp7845
g2474
g6665
ssg2731
(dp7846
g1748
g5555
sg1650
g5367
sVhappening
p7847
g7084
sg1451
g5131
sVoffer
p7848
g6768
ssg2754
(dp7849
Vproblem
p7850
g6889
ssg2756
(dp7851
g2165
g6191
ssg2765
(dp7852
g646
g3847
sssb.