(iDependencyTool
DependencyTool
p0
(dp1
S'counts'
p2
(dp3
S'filtered'
p4
(dp5
((Vevolved
p6
VVBN
p7
tp8
Vconj
p9
(Vreproduce
p10
VVB
p11
tp12
tp13
I1
s((Vrace
p14
VNN
p15
tp16
Vnmod
p17
(Valiens
p18
VNNS
p19
tp20
tp21
I1
s((Vappear
p22
VVBP
p23
tp24
Vadvmod
p25
(Vtherefore
p26
VRB
p27
tp28
tp29
I1
s((Vcopy
p30
VNN
p31
tp32
Vnmod
p33
(Vvariety
p34
VNN
p35
tp36
tp37
I1
s((Vmake
p38
VVB
p39
tp40
Vnmod
p41
(Vaccuracy
p42
VNN
p43
tp44
tp45
I1
s((Vreferred
p46
VVBN
p47
tp48
Vnsubjpass
p49
(Vreason
p50
VNN
p51
tp52
tp53
I1
s((Vbase
p54
VNN
p55
tp56
Vdep
p57
(Vtype
p58
VNN
p59
tp60
tp61
I1
s((Venter
p62
VVB
p63
tp64
Vnmod
p65
(V's
p66
VNNS
p67
tp68
tp69
I1
s((Vdrug
p70
VNN
p71
tp72
Vcase
p73
(Vlike
p74
VIN
p75
tp76
tp77
I1
s((Vperform
p78
VVB
p79
tp80
Vdobj
p81
(Vactions
p82
VNNS
p83
tp84
tp85
I1
s((V's
p86
VNNS
p87
tp88
Vnummod
p89
(V90
p90
VCD
p91
tp92
tp93
I2
s((Vdeals
p94
VVBZ
p95
tp96
Vadvmod
p97
(Vlargely
p98
VRB
p99
tp100
tp101
I1
s(g72
Vamod
p102
(Vrecreational
p103
VJJ
p104
tp105
tp106
I1
s((Vneighboring
p107
VVBZ
p108
tp109
Vdobj
p110
(Varea
p111
VNN
p112
tp113
tp114
I1
s((Vcarnivorous
p115
VJJ
p116
tp117
Vadvcl
p118
(Vregards
p119
VVBG
p120
tp121
tp122
I1
s((Vserve
p123
VVBP
p124
tp125
Vdobj
p126
(Vgreys
p127
VNNS
p128
tp129
tp130
I1
s((Vknown
p131
VVBN
p132
tp133
Vdobj
p134
(Valiens
p135
VNNS
p136
tp137
tp138
I1
s((Vft.
p139
VVBD
p140
tp141
Vparataxis
p142
(Vreports
p143
VVBZ
p144
tp145
tp146
I1
s((Vsystem
p147
VNN
p148
tp149
Vappos
p150
(Vstar
p151
VNN
p152
tp153
tp154
I1
s((Vservants
p155
VJJ
p156
tp157
Vnsubj
p158
(Vgreys
p159
VNNS
p160
tp161
tp162
I1
s((Vgenetics
p163
VNNS
p164
tp165
Vamod
p166
(Vhuman
p167
VJJ
p168
tp169
tp170
I1
s((Vsub-types
p171
VNNS
p172
tp173
Vamod
p174
(Vseveral
p175
VJJ
p176
tp177
tp178
I1
s((Vgoes
p179
VVBZ
p180
tp181
Vconj
p182
(Vinvolved
p183
VJJ
p184
tp185
tp186
I1
s((Vhostile
p187
VJJ
p188
tp189
Vnmod
p190
(Vhumans
p191
VNNS
p192
tp193
tp194
I1
s((Vinfuse
p195
VVB
p196
tp197
Vadvcl
p198
(Vcreating
p199
VVBG
p200
tp201
tp202
I1
s((Vvarieties
p203
VNNS
p204
tp205
Vnmod
p206
(Vbeings
p207
VNNS
p208
tp209
tp210
I1
s((Vexaggerate
p211
VVB
p212
tp213
Vadvcl
p214
(V9
p215
VCD
p216
tp217
tp218
I1
s((g207
g208
tp219
Vamod
p220
(Valien
p221
VJJ
p222
tp223
tp224
I1
s(g157
Vnmod
p225
(g14
g15
tp226
tp227
I1
s((Vgaining
p228
VVBG
p229
tp230
Vdobj
p231
(Vcontrol
p232
VNN
p233
tp234
tp235
I1
s((Vsimilar
p236
VJJ
p237
tp238
Vnsubj
p239
(Vappearance
p240
VNN
p241
tp242
tp243
I1
s((Vshortest
p244
VJJS
p245
tp246
Vnmod
p247
(Vgreys
p248
VNNS
p249
tp250
tp251
I1
s((Vnegative
p252
VJJ
p253
tp254
Vconj
p255
(Vhostile
p256
VJJ
p257
tp258
tp259
I1
s((Vprepare
p260
VVB
p261
tp262
Vdobj
p263
(Vearth
p264
VNN
p265
tp266
tp267
I1
s((Vfeatures
p268
VNNS
p269
tp270
Vconj
p271
(Vnose
p272
VNN
p273
tp274
tp275
I1
s((Vc
p276
VNN
p277
tp278
Vamod
p279
(Vhuman
p280
VJJ
p281
tp282
tp283
I1
s((Vreferred
p284
VVBN
p285
tp286
Vnmod
p287
(Vclass
p288
VNN
p289
tp290
tp291
I1
s(g278
Vparataxis
p292
(Vknown
p293
VVBN
p294
tp295
tp296
I1
s((Vseen
p297
VVBN
p298
tp299
Vadvmod
p300
(Vago
p301
VRB
p302
tp303
tp304
I1
s((Vmanner
p305
VNN
p306
tp307
Vamod
p308
(Vcivilized
p309
VJJ
p310
tp311
tp312
I1
s((Vdue
p313
VJJ
p314
tp315
Vnmod
p316
(Vproblems
p317
VNNS
p318
tp319
tp320
I1
s((Vdescriptions
p321
VNNS
p322
tp323
Vacl
p324
(Vput
p325
VVBN
p326
tp327
tp328
I1
s((Vappearance
p329
VNN
p330
tp331
Vamod
p332
(Vfair-skinned
p333
VJJ
p334
tp335
tp336
I1
s((Vcarnivorous
p337
VJJ
p338
tp339
Vnmod
p340
(Vhumans
p341
VNNS
p342
tp343
tp344
I1
s((Vearth
p345
VNN
p346
tp347
Vnmod
p348
(Vmasters
p349
VNNS
p350
tp351
tp352
I1
s((Vanother
p353
VDT
p354
tp355
Vadvmod
p356
(Vsupposedly
p357
VRB
p358
tp359
tp360
I1
s((Vfear
p361
VNN
p362
tp363
Vamod
p364
(Vemotional
p365
VJJ
p366
tp367
tp368
I1
s((Vbased
p369
VVBN
p370
tp371
Vadvmod
p372
(Vpartly
p373
VRB
p374
tp375
tp376
I1
s((Vviscous
p377
VJJ
p378
tp379
Vnmod
p380
(Vhumans
p381
VNNS
p382
tp383
tp384
I1
s((Vbelieve
p385
VVBP
p386
tp387
Vccomp
p388
(g284
g285
tp389
tp390
I1
s((Vfind
p391
VVB
p392
tp393
Vxcomp
p394
(Vinteresting
p395
VJJ
p396
tp397
tp398
I1
s((Vhelp
p399
VNN
p400
tp401
Vnmod
p402
(Vhumans
p403
VNNS
p404
tp405
tp406
I2
s(g40
Vdobj
p407
(Vclaims
p408
VNNS
p409
tp410
tp411
I1
s((g143
g144
tp412
Vadvmod
p413
(Voften
p414
VRB
p415
tp416
tp417
I1
s((Vfeature
p418
VNN
p419
tp420
Vamod
p421
(Vsimilar
p422
VJJ
p423
tp424
tp425
I1
s((Vserved
p426
VVBN
p427
tp428
Vnmod
p429
(Vtype
p430
VNN
p431
tp432
tp433
I1
s((Vplay
p434
VVB
p435
tp436
Vnmod
p437
(Vthousands
p438
VNNS
p439
tp440
tp441
I1
s((Vb
p442
VNNS
p443
tp444
Vdep
p445
(Valiens
p446
VNNS
p447
tp448
tp449
I1
s((Valiens
p450
VNNS
p451
tp452
Vacl
p453
(Vtrusted
p454
VVBN
p455
tp456
tp457
I1
s((Vsirius
p458
VNNS
p459
tp460
Vconj
p461
(Vappear
p462
VVB
p463
tp464
tp465
I1
s((Vbrain
p466
VNN
p467
tp468
Vamod
p469
(Vhuman
p470
VJJ
p471
tp472
tp473
I1
s((Vgenetics
p474
VNNS
p475
tp476
Vamod
p477
(Vsimilar
p478
VJJ
p479
tp480
tp481
I1
s((Vabrupt
p482
VJJ
p483
tp484
Vconj
p485
(Vcrude
p486
VJJ
p487
tp488
tp489
I1
s((Vbehavior
p490
VNN
p491
tp492
Vamod
p493
(Vbusiness-like
p494
VJJ
p495
tp496
tp497
I1
s((Vstandards
p498
VNNS
p499
tp500
Vamod
p501
(Vhuman
p502
VJJ
p503
tp504
tp505
I1
s((Vgreys
p506
VNNS
p507
tp508
Vnmod
p509
(Vservants
p510
VNNS
p511
tp512
tp513
I1
s((Vuse
p514
VVB
p515
tp516
Vnmod
p517
(g70
g71
tp518
tp519
I1
s((Vtype
p520
VNN
p521
tp522
Vdep
p523
(Vtype
p524
VNN
p525
tp526
tp527
I1
s((Vpass
p528
VVB
p529
tp530
Vadvmod
p531
(Valong
p532
VIN
p533
tp534
tp535
I1
s((Vtake
p536
VVB
p537
tp538
Vnmod
p539
(Vregard
p540
VNN
p541
tp542
tp543
I1
s((g183
g184
tp544
Vadvcl
p545
(Vinfluencing
p546
VVBG
p547
tp548
tp549
I1
s(g238
Vnmod
p550
(Valiens
p551
VNNS
p552
tp553
tp554
I1
s((Vcross
p555
VVB
p556
tp557
Vnmod
p558
(Vhumans
p559
VNNS
p560
tp561
tp562
I1
s((Vplanet
p563
VNN
p564
tp565
Vamod
p566
(Ventire
p567
VJJ
p568
tp569
tp570
I1
s((Vassistance
p571
VNN
p572
tp573
Vnmod
p574
(Vleaders
p575
VNNS
p576
tp577
tp578
I1
s(g96
Vnsubj
p579
(Vscience
p580
VNN
p581
tp582
tp583
I1
s((Vhair
p584
VNN
p585
tp586
Vamod
p587
(Vblonde
p588
VJJ
p589
tp590
tp591
I1
s(g444
Vamod
p592
(Vhuman
p593
VJJ
p594
tp595
tp596
I1
s((Varea
p597
VNN
p598
tp599
Vnmod
p600
(Vhome
p601
VNN
p602
tp603
tp604
I1
s((g301
g302
tp605
Vadvmod
p606
(Vlong
p607
VRB
p608
tp609
tp610
I1
s((Vtype
p611
VNN
p612
tp613
Vamod
p614
(Valien
p615
VJJ
p616
tp617
tp618
I3
s((g58
g59
tp619
Vdep
p620
(V3
p621
VCD
p622
tp623
tp624
I1
s((Vtall
p625
VJJ
p626
tp627
Vadvmod
p628
(Vnormally
p629
VRB
p630
tp631
tp632
I1
s((Vnature
p633
VNN
p634
tp635
Vamod
p636
(Vspiritually
p637
VJJ
p638
tp639
tp640
I1
s((Vcreate
p641
VVB
p642
tp643
Vdobj
p644
(Vrace
p645
VNN
p646
tp647
tp648
I1
s((Vseems
p649
VVBZ
p650
tp651
Vadvmod
p652
(Valso
p653
VRB
p654
tp655
tp656
I1
s((Vevolved
p657
VJJ
p658
tp659
Vadvmod
p660
(Vhighly
p661
VRB
p662
tp663
tp664
I1
s((Vspecies
p665
VNN
p666
tp667
Vacl:relcl
p668
(Vcloned
p669
VVBN
p670
tp671
tp672
I1
s(g468
Vnmod
p673
(g361
g362
tp674
tp675
I1
s((Vmillion
p676
VCD
p677
tp678
Vnmod
p679
(Vlizard-folk
p680
VNN
p681
tp682
tp683
I1
s((g422
g423
tp684
Vxcomp
p685
(Vgrey
p686
VVB
p687
tp688
tp689
I1
s((Vconsideration
p690
VNN
p691
tp692
Vnmod
p693
(g86
g87
tp694
tp695
I1
s(g246
Vconj
p696
(Vtend
p697
VVBP
p698
tp699
tp700
I1
s((Vcalled
p701
VVBN
p702
tp703
Vnmod
p704
(Vsystem
p705
VNN
p706
tp707
tp708
I1
s((Vabducted
p709
VVBN
p710
tp711
Vconj
p712
(Vtrained
p713
VVBN
p714
tp715
tp716
I1
s((Vtrying
p717
VVBG
p718
tp719
Vaux
p720
(Vmay
p721
VMD
p722
tp723
tp724
I1
s((g462
g463
tp725
Vneg
p726
(Vn't
p727
VRB
p728
tp729
tp730
I1
s((Vtend
p731
VVBP
p732
tp733
Vxcomp
p734
(Vfair-skinned
p735
VVBN
p736
tp737
tp738
I1
s((Vdesire
p739
VVB
p740
tp741
Vdobj
p742
(g399
g400
tp743
tp744
I1
s((g82
g83
tp745
Vacl:relcl
p746
(Vappear
p747
VVBP
p748
tp749
tp750
I1
s((Vadvanced
p751
VJJ
p752
tp753
Vadvmod
p754
(Vhighly
p755
VRB
p756
tp757
tp758
I1
s((g403
g404
tp759
Vnmod
p760
(Vconfrontations
p761
VNNS
p762
tp763
tp764
I1
s(g8
Vnmod
p765
(Vneed
p766
VNN
p767
tp768
tp769
I1
s((Vholds
p770
VVBZ
p771
tp772
Vxcomp
p773
(Vmovers
p774
VNNS
p775
tp776
tp777
I1
s(g331
Vamod
p778
(Vblonde
p779
VJJ
p780
tp781
tp782
I1
s(g157
Vadvmod
p783
(Vactually
p784
VRB
p785
tp786
tp787
I1
s((Vexception
p788
VNN
p789
tp790
Vnmod
p791
(Vnose
p792
VNN
p793
tp794
tp795
I1
s(g711
Vnmod
p796
(Vgreys
p797
VNNS
p798
tp799
tp800
I1
s((Vreturn
p801
VNN
p802
tp803
Vcase
p804
(Vupon
p805
VIN
p806
tp807
tp808
I1
s((Vbecoming
p809
VVBG
p810
tp811
Vconj
p812
(Vneed
p813
VVBP
p814
tp815
tp816
I1
s((Vbeings
p817
VNNS
p818
tp819
Vamod
p820
(Vhuman
p821
VJJ
p822
tp823
tp824
I1
s(g270
Vconj
p825
(Vmouth
p826
VNN
p827
tp828
tp829
I1
s((Vdefined
p830
VVBN
p831
tp832
Vdobj
p833
(Vstructure
p834
VNN
p835
tp836
tp837
I1
s(g315
Vadvmod
p838
(Vapparently
p839
VRB
p840
tp841
tp842
I1
s(g379
Vnsubj
p843
(Vgreys
p844
VNNS
p845
tp846
tp847
I1
s(g141
Vadvmod
p848
(Vusually
p849
VRB
p850
tp851
tp852
I1
s((Vhumans
p853
VNNS
p854
tp855
Vnmod
p856
(Vearth
p857
VNN
p858
tp859
tp860
I1
s((Vwrap
p861
VJJ
p862
tp863
Vdep
p864
(Varound
p865
VRP
p866
tp867
tp868
I1
s((Vknown
p869
VVBN
p870
tp871
Vnmod
p872
(Vreticulan
p873
VNN
p874
tp875
tp876
I1
s((Vrace
p877
VNN
p878
tp879
Vamod
p880
(Vinferior
p881
VJJ
p882
tp883
tp884
I1
s((Vhumans
p885
VNNS
p886
tp887
Vacl:relcl
p888
(g123
g124
tp889
tp890
I1
s((Vexpect
p891
VVB
p892
tp893
Vaux
p894
(Vwould
p895
VMD
p896
tp897
tp898
I1
s(g379
Vadvmod
p899
(Vless
p900
VRBR
p901
tp902
tp903
I1
s(g56
Vamod
p904
(Vsimilar
p905
VJJ
p906
tp907
tp908
I1
s((Vbody
p909
VNN
p910
tp911
Vamod
p912
(Vhuman
p913
VJJ
p914
tp915
tp916
I1
s(g88
Vcompound
p917
(Vfuture
p918
VNN
p919
tp920
tp921
I1
s((g454
g455
tp922
Vadvmod
p923
(Vtruly
p924
VRB
p925
tp926
tp927
I1
s((Vecho
p928
VVBP
p929
tp930
Vcsubj
p931
(Vecho
p932
VVBP
p933
tp934
tp935
I1
s((Valiens
p936
VNNS
p937
tp938
Vdep
p939
(Vtype
p940
VNN
p941
tp942
tp943
I1
s((Vhumans
p944
VNNS
p945
tp946
Vnmod
p947
(g877
g878
tp948
tp949
I1
s((g575
g576
tp950
Vcompound
p951
(Vearth
p952
VNN
p953
tp954
tp955
I1
s((Vmuch
p956
VRB
p957
tp958
Vnmod:npmod
p959
(Vway
p960
VNN
p961
tp962
tp963
I1
s((Vconcerned
p964
VVBN
p965
tp966
Vnmod
p967
(Vscenario
p968
VNN
p969
tp970
tp971
I1
s(g684
Vadvmod
p972
(Vsomewhat
p973
VRB
p974
tp975
tp976
I1
s(g725
Vxcomp
p977
(Vinvolved
p978
VVBN
p979
tp980
tp981
I1
s((g325
g326
tp982
Vnmod
p983
(Vufo
p984
VNN
p985
tp986
tp987
I1
s((Vreptilians
p988
VNNS
p989
tp990
Vdep
p991
(Vgenetics
p992
VNNS
p993
tp994
tp995
I1
s((Vconsider
p996
VVBP
p997
tp998
Vadvcl
p999
(Voutpost
p1000
VNN
p1001
tp1002
tp1003
I1
s((Vgreys
p1004
VVBZ
p1005
tp1006
Vnsubj
p1007
(g442
VSYM
p1008
tp1009
tp1010
I1
s((Vfind
p1011
VVB
p1012
tp1013
Vdobj
p1014
(g30
g31
tp1015
tp1016
I1
s((Vallow
p1017
VVBP
p1018
tp1019
Vxcomp
p1020
(g78
g79
tp1021
tp1022
I1
s((g774
g775
tp1023
Vamod
p1024
(Vprime
p1025
VJJ
p1026
tp1027
tp1028
I1
s((Vbases
p1029
VNNS
p1030
tp1031
Vamod
p1032
(Vknown
p1033
VVBN
p1034
tp1035
tp1036
I1
s((Vappreciate
p1037
VVB
p1038
tp1039
Vaux
p1040
(V'd
p1041
VMD
p1042
tp1043
tp1044
I1
s((g978
g979
tp1045
Vnmod
p1046
(Vhappenings
p1047
VNNS
p1048
tp1049
tp1050
I1
s((Vbetter
p1051
VJJR
p1052
tp1053
Vadvmod
p1054
(Veither
p1055
VDT
p1056
tp1057
tp1058
I1
s((Vlimited
p1059
VVBN
p1060
tp1061
Vadvcl
p1062
(Vspeak
p1063
VVB
p1064
tp1065
tp1066
I1
s(g871
Vadvmod
p1067
(Valso
p1068
VRB
p1069
tp1070
tp1071
I2
s((Velse
p1072
VRB
p1073
tp1074
Vadvmod
p1075
(Vsomewhere
p1076
VRB
p1077
tp1078
tp1079
I1
s((Vtaken
p1080
VVBN
p1081
tp1082
Vdobj
p1083
(Vkind
p1084
VNN
p1085
tp1086
tp1087
I1
s((Vhouse
p1088
VNN
p1089
tp1090
Vamod
p1091
(Vdavid
p1092
VJJ
p1093
tp1094
tp1095
I1
s((Vunderstanding
p1096
VNN
p1097
tp1098
Vccomp
p1099
(g155
g156
tp1100
tp1101
I1
s((Vbenevolent
p1102
VJJ
p1103
tp1104
Vamod
p1105
(Vevolved
p1106
VJJ
p1107
tp1108
tp1109
I1
s((g119
g120
tp1110
Vnmod
p1111
(Vhumans
p1112
VNNS
p1113
tp1114
tp1115
I1
s((Vappear
p1116
VVB
p1117
tp1118
Vconj
p1119
(g46
g47
tp1120
tp1121
I1
s(g88
Vcompound
p1122
(Vmid
p1123
VNNP
p1124
tp1125
tp1126
I1
s(g922
Vnmod
p1127
(Vhumans
p1128
VNNS
p1129
tp1130
tp1131
I1
s((Vdisclaimer
p1132
VNN
p1133
tp1134
Vappos
p1135
(g38
g39
tp1136
tp1137
I1
s((g834
g835
tp1138
Vamod
p1139
(Vsocial
p1140
VJJ
p1141
tp1142
tp1143
I1
s((g992
g993
tp1144
Vamod
p1145
(Vakin
p1146
VJJ
p1147
tp1148
tp1149
I1
s(g141
Vnsubj
p1150
(V8
p1151
VCD
p1152
tp1153
tp1154
I1
s((Vgain
p1155
VVB
p1156
tp1157
Vdobj
p1158
(Vcontrol
p1159
VNN
p1160
tp1161
tp1162
I1
s((g881
g882
tp1163
Vadvmod
p1164
(Vtotally
p1165
VRB
p1166
tp1167
tp1168
I1
s((g293
g294
tp1169
Vnsubjpass
p1170
(Vlittle
p1171
VJJ
p1172
tp1173
tp1174
I1
s(g635
Vcompound
p1175
(Vevolved
p1176
VNNS
p1177
tp1178
tp1179
I1
s((Vrefined
p1180
VJJ
p1181
tp1182
Vnmod
p1183
(g490
g491
tp1184
tp1185
I1
s((Vcourse
p1186
VNN
p1187
tp1188
Vnmod
p1189
(Vaction
p1190
VNN
p1191
tp1192
tp1193
I1
s((Vbenevolence
p1194
VNN
p1195
tp1196
Vnmod
p1197
(Vhumans
p1198
VNNS
p1199
tp1200
tp1201
I1
s(g363
Vcompound
p1202
(V-LSB-
p1203
VNN
p1204
tp1205
tp1206
I1
s(g1006
Vdep
p1207
(g139
g140
tp1208
tp1209
I1
s((Vforms
p1210
VNNS
p1211
tp1212
Vconj
p1213
(Vengineering
p1214
VNN
p1215
tp1216
tp1217
I1
s((Vappears
p1218
VVBZ
p1219
tp1220
Vxcomp
p1221
(g690
g691
tp1222
tp1223
I1
s(g627
Vnmod:npmod
p1224
(Vft
p1225
VNN
p1226
tp1227
tp1228
I1
s((Vsimilar
p1229
VJJ
p1230
tp1231
Vnmod
p1232
(Vzeta
p1233
VNN
p1234
tp1235
tp1236
I1
s(g347
Vdep
p1237
(Vaway
p1238
VRB
p1239
tp1240
tp1241
I1
s((g264
g265
tp1242
Vnmod
p1243
(Varrival
p1244
VNN
p1245
tp1246
tp1247
I1
s((Vhuman
p1248
VNN
p1249
tp1250
Vcase
p1251
(V's
p1252
VPOS
p1253
tp1254
tp1255
I1
s((Vreticuli
p1256
VNNS
p1257
tp1258
Vcompound
p1259
(Vzeta
p1260
VNN
p1261
tp1262
tp1263
I1
s((Vtime
p1264
VNN
p1265
tp1266
Vnummod
p1267
(Vone
p1268
VCD
p1269
tp1270
tp1271
I1
s((Vsystems
p1272
VNNS
p1273
tp1274
Vamod
p1275
(Vreproductive
p1276
VJJ
p1277
tp1278
tp1279
I1
s((Vdesire
p1280
VVB
p1281
tp1282
Vxcomp
p1283
(Vhelp
p1284
VNN
p1285
tp1286
tp1287
I1
s((Vcountries
p1288
VNNS
p1289
tp1290
Vamod
p1291
(Vmany
p1292
VJJ
p1293
tp1294
tp1295
I1
s((g813
g814
tp1296
Vxcomp
p1297
(Vlive
p1298
VVB
p1299
tp1300
tp1301
I1
s(g1053
Vaux
p1302
(Vwould
p1303
VMD
p1304
tp1305
tp1306
I1
s((Vtype
p1307
VNN
p1308
tp1309
Vnmod
p1310
(g1194
g1195
tp1311
tp1312
I1
s(g205
Vcompound
p1313
(Vhouse
p1314
VNN
p1315
tp1316
tp1317
I1
s((g151
g152
tp1318
Vamod
p1319
(Vbernard
p1320
VJJ
p1321
tp1322
tp1323
I1
s((g540
g541
tp1324
Vcase
p1325
(Vwithout
p1326
VIN
p1327
tp1328
tp1329
I1
s((g705
g706
tp1330
Vnmod
p1331
(Vshoulder
p1332
VNN
p1333
tp1334
tp1335
I1
s(g323
Vamod
p1336
(Valien
p1337
VJJ
p1338
tp1339
tp1340
I1
s((Vconsidered
p1341
VVBN
p1342
tp1343
Vadvmod
p1344
(Vstill
p1345
VRB
p1346
tp1347
tp1348
I1
s((Vbreed
p1349
VNN
p1350
tp1351
Vamod
p1352
(Vmixed
p1353
VJJ
p1354
tp1355
tp1356
I1
s((Vgreys
p1357
VNNS
p1358
tp1359
Vnmod
p1360
(Vorion
p1361
VNN
p1362
tp1363
tp1364
I1
s((Vhumans
p1365
VNNS
p1366
tp1367
Vcase
p1368
(Vtoward
p1369
VIN
p1370
tp1371
tp1372
I1
s(g651
Vnmod
p1373
(g885
g886
tp1374
tp1375
I1
s(g1061
Vdobj
p1376
(g268
g269
tp1377
tp1378
I1
s((g438
g439
tp1379
Vnmod
p1380
(Vyears
p1381
VNNS
p1382
tp1383
tp1384
I1
s((Vseem
p1385
VVBP
p1386
tp1387
Vxcomp
p1388
(Vemotionless
p1389
VJJ
p1390
tp1391
tp1392
I1
s((g686
g687
tp1393
Vdobj
p1394
(Vtype
p1395
VNN
p1396
tp1397
tp1398
I1
s((Vvariety
p1399
VNN
p1400
tp1401
Vamod
p1402
(g1102
g1103
tp1403
tp1404
I1
s((Vunable
p1405
VJJ
p1406
tp1407
Vxcomp
p1408
(Vsupport
p1409
VVB
p1410
tp1411
tp1412
I1
s((Vstudy
p1413
VNN
p1414
tp1415
Vnmod
p1416
(g1210
g1211
tp1417
tp1418
I1
s(g141
Vxcomp
p1419
(Vtall
p1420
VJJ
p1421
tp1422
tp1423
I1
s((g276
VNN
p1424
tp1425
Vamod
p1426
(Vgrey
p1427
VJJ
p1428
tp1429
tp1430
I1
s((Vplanetoid
p1431
VJJ
p1432
tp1433
Vconj
p1434
(Vdriven
p1435
VJJ
p1436
tp1437
tp1438
I1
s((Vtrying
p1439
VVBG
p1440
tp1441
Vxcomp
p1442
(g260
g261
tp1443
tp1444
I1
s((Vperceive
p1445
VVB
p1446
tp1447
Vadvmod
p1448
(g956
g957
tp1449
tp1450
I1
s((Vget
p1451
VVB
p1452
tp1453
Vdobj
p1454
(Vufo
p1455
VNN
p1456
tp1457
tp1458
I1
s(g1401
Vnsubj
p1459
(Vtype
p1460
VNN
p1461
tp1462
tp1463
I1
s(g557
Vdobj
p1464
(Vbreed
p1465
VNN
p1466
tp1467
tp1468
I1
s((Vseem
p1469
VVBP
p1470
tp1471
Vnsubj
p1472
(Vbases
p1473
VNNS
p1474
tp1475
tp1476
I1
s(g1453
Vneg
p1477
(Vn't
p1478
VRB
p1479
tp1480
tp1481
I1
s((Vscience
p1482
VNN
p1483
tp1484
Vconj
p1485
(Vworlds
p1486
VNNS
p1487
tp1488
tp1489
I1
s(g371
Vnsubjpass
p1490
(Vgenetics
p1491
VNNS
p1492
tp1493
tp1494
I1
s(g544
Vadvmod
p1495
(Vsupposedly
p1496
VRB
p1497
tp1498
tp1499
I1
s((g1000
g1001
tp1500
Vamod
p1501
(Vancient
p1502
VJJ
p1503
tp1504
tp1505
I1
s(g181
Vdep
p1506
(Vokay
p1507
VJJ
p1508
tp1509
tp1510
I1
s((Voffered
p1511
VVBN
p1512
tp1513
Vxcomp
p1514
(g571
g572
tp1515
tp1516
I1
s(g871
Vnmod
p1517
(g1256
g1257
tp1518
tp1519
I1
s(g197
Vdobj
p1520
(Vlife
p1521
VNN
p1522
tp1523
tp1524
I1
s(g109
Vdep
p1525
(g869
g870
tp1526
tp1527
I1
s((Vtype
p1528
VNN
p1529
tp1530
Vdep
p1531
(V2
p1532
VCD
p1533
tp1534
tp1535
I1
s((Vmuch
p1536
VRB
p1537
tp1538
Vadvcl
p1539
(Vgrows
p1540
VVBZ
p1541
tp1542
tp1543
I1
s((Vagreements
p1544
VNNS
p1545
tp1546
Vamod
p1547
(Vnegotiated
p1548
VVBN
p1549
tp1550
tp1551
I1
s(g1231
Vccomp
p1552
(Vgreys
p1553
VVBZ
p1554
tp1555
tp1556
I1
s((g637
g638
tp1557
Vadvmod
p1558
(Vhighly
p1559
VRB
p1560
tp1561
tp1562
I1
s((g446
g447
tp1563
Vnmod
p1564
(g474
g475
tp1565
tp1566
I1
s((Vfeedback
p1567
VNN
p1568
tp1569
Vacl:relcl
p1570
(Vcare
p1571
VVB
p1572
tp1573
tp1574
I1
s(g149
Vcompound
p1575
(Vstar
p1576
VNN
p1577
tp1578
tp1579
I2
s((Vreptilians
p1580
VNNS
p1581
tp1582
Vacl:relcl
p1583
(g1218
g1219
tp1584
tp1585
I1
s((Vinformation
p1586
VNN
p1587
tp1588
Vamod
p1589
(Vaccurate
p1590
VJJ
p1591
tp1592
tp1593
I1
s(g331
Vadvmod
p1594
(Valso
p1595
VRB
p1596
tp1597
tp1598
I1
s(g753
Vadvcl
p1599
(Vregard
p1600
VVBP
p1601
tp1602
tp1603
I1
s(g412
Vdep
p1604
(g211
g212
tp1605
tp1606
I1
s((V-RSB-
p1607
VVBZ
p1608
tp1609
Vxcomp
p1610
(Vfluid
p1611
VJJ
p1612
tp1613
tp1614
I1
s((Vsubstances
p1615
VNNS
p1616
tp1617
Vamod
p1618
(Vcertain
p1619
VJJ
p1620
tp1621
tp1622
I1
s((g766
g767
tp1623
Vcase
p1624
(Vbeyond
p1625
VIN
p1626
tp1627
tp1628
I1
s((g1540
g1541
tp1629
Vnsubj
p1630
(Vspecies
p1631
VNNS
p1632
tp1633
tp1634
I1
s((Vtend
p1635
VVBP
p1636
tp1637
Vxcomp
p1638
(Venjoy
p1639
VVB
p1640
tp1641
tp1642
I1
s((Vreferred
p1643
VVBN
p1644
tp1645
Vadvmod
p1646
(Vcommonly
p1647
VRB
p1648
tp1649
tp1650
I1
s((g551
g552
tp1651
Vamod
p1652
(Vhuman-type
p1653
VJJ
p1654
tp1655
tp1656
I1
s(g711
Vconj
p1657
(Voffspring
p1658
VNN
p1659
tp1660
tp1661
I1
s((g1214
g1215
tp1662
Vamod
p1663
(Vgenetic
p1664
VJJ
p1665
tp1666
tp1667
I1
s((Vislands
p1668
VNNS
p1669
tp1670
Vcompound
p1671
(Valeutian
p1672
VNN
p1673
tp1674
tp1675
I1
s(g930
Vconj
p1676
(Vread
p1677
VVB
p1678
tp1679
tp1680
I1
s(g1447
Vdobj
p1681
(Vus
p1682
VPRP
p1683
tp1684
tp1685
I1
s(g230
Vnmod
p1686
(Vmeans
p1687
VNNS
p1688
tp1689
tp1690
I1
s((Veyes
p1691
VNNS
p1692
tp1693
Vamod
p1694
(g861
g862
tp1695
tp1696
I1
s(g998
Vdobj
p1697
(Vearth
p1698
VNN
p1699
tp1700
tp1701
I1
s((Valiens
p1702
VNNS
p1703
tp1704
Vacl:relcl
p1705
(g426
g427
tp1706
tp1707
I1
s(g1530
Vdep
p1708
(g988
g989
tp1709
tp1710
I1
s(g355
Vnmod
p1711
(g1307
g1308
tp1712
tp1713
I1
s(g1182
Vnsubj
p1714
(Vones
p1715
VNNS
p1716
tp1717
tp1718
I1
s(g741
Vnmod
p1719
(g1580
g1581
tp1720
tp1721
I1
s((Vcontrol
p1722
VNN
p1723
tp1724
Vnmod
p1725
(g563
g564
tp1726
tp1727
I1
s((g645
g646
tp1728
Vcompound
p1729
(Vmixture
p1730
VNN
p1731
tp1732
tp1733
I1
s(g205
Vnmod
p1734
(Vhumans
p1735
VNNS
p1736
tp1737
tp1738
I1
s((g669
g670
tp1739
Vadvmod
p1740
(g1536
g1537
tp1741
tp1742
I1
s(g911
Vnmod
p1743
(Vsustenance
p1744
VNN
p1745
tp1746
tp1747
I1
s((Vsubservient
p1748
VJJ
p1749
tp1750
Vadvmod
p1751
(Vtotally
p1752
VRB
p1753
tp1754
tp1755
I1
s(g1433
Vacl
p1756
(Vinhabited
p1757
VVBN
p1758
tp1759
tp1760
I1
s(g1359
Vamod
p1761
(Vtall
p1762
VJJ
p1763
tp1764
tp1765
I1
s((Vrebuffed
p1766
VVBN
p1767
tp1768
Vconj
p1769
(g1080
g1081
tp1770
tp1771
I1
s(g1724
Vamod
p1772
(Vcomplete
p1773
VJJ
p1774
tp1775
tp1776
I1
s((Vuse
p1777
VVB
p1778
tp1779
Vadvmod
p1780
(Vapparently
p1781
VRB
p1782
tp1783
tp1784
I1
s(g619
Vdep
p1785
(g936
g937
tp1786
tp1787
I1
s(g436
Vnmod
p1788
(Valteration
p1789
VNN
p1790
tp1791
tp1792
I1
s((Vshare
p1793
VVB
p1794
tp1795
Vadvcl
p1796
(Vwish
p1797
VVBP
p1798
tp1799
tp1800
I1
s((Vtall
p1801
VJJ
p1802
tp1803
Vnmod:npmod
p1804
(Vft.
p1805
VNN
p1806
tp1807
tp1808
I1
s((Vheads
p1809
VNNS
p1810
tp1811
Vconj
p1812
(g1691
g1692
tp1813
tp1814
I1
s((g1033
g1034
tp1815
Vdep
p1816
(Vbest
p1817
VJJS
p1818
tp1819
tp1820
I1
s(g719
Vxcomp
p1821
(g555
g556
tp1822
tp1823
I1
s((g1332
g1333
tp1824
Vcase
p1825
(Vnear
p1826
VIN
p1827
tp1828
tp1829
I1
s((g735
g736
tp1830
Vnmod
p1831
(g584
g585
tp1832
tp1833
I1
s((Vgiven
p1834
VVBN
p1835
tp1836
Vconj
p1837
(Vwanted
p1838
VVBD
p1839
tp1840
tp1841
I1
s((Vpart
p1842
VNN
p1843
tp1844
Vnmod
p1845
(g466
g467
tp1846
tp1847
I1
s(g1750
Vnmod
p1848
(Vgreys
p1849
VNNS
p1850
tp1851
tp1852
I1
s((Vhawkish
p1853
VNN
p1854
tp1855
Vconj
p1856
(g482
g483
tp1857
tp1858
I1
s((Vsituation
p1859
VNN
p1860
tp1861
Vnmod
p1862
(Vearth
p1863
VNN
p1864
tp1865
tp1866
I1
s((g199
g200
tp1867
Vdobj
p1868
(g1349
g1350
tp1869
tp1870
I1
s((Vsituation
p1871
VNN
p1872
tp1873
Vamod
p1874
(Valien
p1875
VJJ
p1876
tp1877
tp1878
I1
s((g1571
g1572
tp1879
Vxcomp
p1880
(g1793
g1794
tp1881
tp1882
I1
s((Vopinion
p1883
VNN
p1884
tp1885
Vamod
p1886
(Vpersonal
p1887
VJJ
p1888
tp1889
tp1890
I1
s((g215
g216
tp1891
Vnmod
p1892
(Vft.
p1893
VNN
p1894
tp1895
tp1896
I1
s((Vbases
p1897
VNNS
p1898
tp1899
Vnmod
p1900
(g1288
g1289
tp1901
tp1902
I1
s((Vsystems
p1903
VNNS
p1904
tp1905
Vcompound
p1906
(Vdigestive
p1907
VNN
p1908
tp1909
tp1910
I1
s((Vable
p1911
VJJ
p1912
tp1913
Vxcomp
p1914
(g514
g515
tp1915
tp1916
I1
s((Vtype
p1917
VNN
p1918
tp1919
Vnmod
p1920
(Vgrey
p1921
VNN
p1922
tp1923
tp1924
I1
s((g747
g748
tp1925
Vdobj
p1926
(Vmiraculous
p1927
VNNS
p1928
tp1929
tp1930
I1
s((Vfind
p1931
VVB
p1932
tp1933
Vaux
p1934
(Vmight
p1935
VMD
p1936
tp1937
tp1938
I2
s((Vkinship
p1939
VNN
p1940
tp1941
Vnmod
p1942
(g1365
g1366
tp1943
tp1944
I1
s(g476
Vnmod
p1945
(Vhumans
p1946
VNNS
p1947
tp1948
tp1949
I1
s((Vaware
p1950
VJJ
p1951
tp1952
Vnmod
p1953
(g1859
g1860
tp1954
tp1955
I1
s(g205
Vamod
p1956
(Vdavid
p1957
VJJ
p1958
tp1959
tp1960
I1
s((Vtend
p1961
VVBP
p1962
tp1963
Vadvcl
p1964
(g1116
g1117
tp1965
tp1966
I1
s((g135
g136
tp1967
Vacl:relcl
p1968
(g1950
g1951
tp1969
tp1970
I1
s(g1824
Vnmod
p1971
(Vorion
p1972
VNN
p1973
tp1974
tp1975
I1
s(g88
Vamod
p1976
(Vnear
p1977
VJJ
p1978
tp1979
tp1980
I1
s(g363
Vamod
p1981
(Vintense
p1982
VJJ
p1983
tp1984
tp1985
I1
s(g1104
Vamod
p1986
(Vspiritual
p1987
VJJ
p1988
tp1989
tp1990
I1
s((Vtrying
p1991
VVBG
p1992
tp1993
Vxcomp
p1994
(g195
g196
tp1995
tp1996
I1
s((g1473
g1474
tp1997
Vamod
p1998
(Vmain
p1999
VJJ
p2000
tp2001
tp2002
I1
s(g1879
Vaux
p2003
(V'd
p2004
VMD
p2005
tp2006
tp2007
I1
s((Vfeeling
p2008
VNN
p2009
tp2010
Vnmod
p2011
(Vfreedom
p2012
VNN
p2013
tp2014
tp2015
I1
s((Vtype
p2016
VNN
p2017
tp2018
Vdep
p2019
(g442
VSYM
p2020
tp2021
tp2022
I1
s(g444
Vcompound
p2023
(Vtype
p2024
VNN
p2025
tp2026
tp2027
I1
s((Vexpress
p2028
VVB
p2029
tp2030
Vdobj
p2031
(g1883
g1884
tp2032
tp2033
I1
s((g1677
g1678
tp2034
Vneg
p2035
(Vn't
p2036
VRB
p2037
tp2038
tp2039
I1
s(g811
Vxcomp
p2040
(g1405
g1406
tp2041
tp2042
I1
s(g1118
Vdobj
p2043
(Vgreyish
p2044
VNN
p2045
tp2046
tp2047
I1
s((g232
g233
tp2048
Vnmod
p2049
(Vearth
p2050
VNN
p2051
tp2052
tp2053
I1
s(g745
Vamod
p2054
(Vcertain
p2055
VJJ
p2056
tp2057
tp2058
I1
s((Vproceed
p2059
VVB
p2060
tp2061
Vnmod
p2062
(g305
g306
tp2063
tp2064
I1
s((Vaffairs
p2065
VNNS
p2066
tp2067
Vamod
p2068
(Vhuman
p2069
VJJ
p2070
tp2071
tp2072
I1
s((Vperceive
p2073
VVB
p2074
tp2075
Vdobj
p2076
(Vherd
p2077
VNN
p2078
tp2079
tp2080
I1
s(g1231
Vnsubj
p2081
(Vfeatures
p2082
VNNS
p2083
tp2084
tp2085
I1
s((g546
g547
tp2086
Vdobj
p2087
(g2065
g2066
tp2088
tp2089
I1
s((g1600
g1601
tp2090
Vmark
p2091
(Vsince
p2092
VIN
p2093
tp2094
tp2095
I1
s((g940
g941
tp2096
Vdep
p2097
(Vhuman
p2098
VJJ
p2099
tp2100
tp2101
I1
s((Vseems
p2102
VVBZ
p2103
tp2104
Vccomp
p2105
(g717
g718
tp2106
tp2107
I1
s((Vable
p2108
VJJ
p2109
tp2110
Vxcomp
p2111
(g536
g537
tp2112
tp2113
I1
s((g317
g318
tp2114
Vamod
p2115
(Vserious
p2116
VJJ
p2117
tp2118
tp2119
I1
s((g1151
g1152
tp2120
Vcompound
p2121
(V7
p2122
VCD
p2123
tp2124
tp2125
I1
s((Vkept
p2126
VVBN
p2127
tp2128
Vnsubjpass
p2129
(Vschedule
p2130
VNN
p2131
tp2132
tp2133
I1
s((Vsystem
p2134
VNN
p2135
tp2136
Vamod
p2137
(Vsolar
p2138
VJJ
p2139
tp2140
tp2141
I1
s(g1623
Vnmod
p2142
(g1272
g1273
tp2143
tp2144
I1
s((Vfound
p2145
VVBN
p2146
tp2147
Vnmod
p2148
(Vtype
p2149
VNN
p2150
tp2151
tp2152
I1
s(g753
Vccomp
p2153
(Vviewed
p2154
VVBN
p2155
tp2156
tp2157
I1
s((Vtype
p2158
VNN
p2159
tp2160
Vacl
p2161
(g297
g298
tp2162
tp2163
I1
s((Vbehavior
p2164
VNN
p2165
tp2166
Vamod
p2167
(Vdiplomatic
p2168
VJJ
p2169
tp2170
tp2171
I1
s((g1757
g1758
tp2172
Vnmod
p2173
(g676
g677
tp2174
tp2175
I1
s((g1893
g1894
tp2176
Vnummod
p2177
(V12
p2178
VCD
p2179
tp2180
tp2181
I1
s((g968
g969
tp2182
Vamod
p2183
(Vgrey
p2184
VJJ
p2185
tp2186
tp2187
I1
s((g1146
g1147
tp2188
Vnmod
p2189
(Vreptiles
p2190
VNNS
p2191
tp2192
tp2193
I1
s(g938
Vamod
p2194
(Vhuman
p2195
VJJ
p2196
tp2197
tp2198
I2
s(g254
Vconj
p2199
(Vdangerous
p2200
VJJ
p2201
tp2202
tp2203
I1
s(g1967
Vnmod
p2204
(g633
g634
tp2205
tp2206
I1
s((Vuse
p2207
VVB
p2208
tp2209
Vadvcl
p2210
(g1155
g1156
tp2211
tp2212
I1
s((Vcontrols
p2213
VNNS
p2214
tp2215
Vconj
p2216
(g1544
g1545
tp2217
tp2218
I1
s((Vprefer
p2219
VVBP
p2220
tp2221
Vxcomp
p2222
(g2207
g2208
tp2223
tp2224
I1
s(g56
Vamod
p2225
(Vgenetic
p2226
VJJ
p2227
tp2228
tp2229
I1
s((Vread
p2230
VVBP
p2231
tp2232
Vccomp
p2233
(g1607
g1608
tp2234
tp2235
I1
s(g678
Vcompound
p2236
(V30
p2237
VCD
p2238
tp2239
tp2240
I1
s(g1274
Vconj
p2241
(g1903
g1904
tp2242
tp2243
I1
s((g932
g933
tp2244
Vdep
p2245
(Vthought
p2246
VVBD
p2247
tp2248
tp2249
I1
s((Vrace
p2250
VNN
p2251
tp2252
Vcompound
p2253
(Vforefather
p2254
VNN
p2255
tp2256
tp2257
I1
s((Vseen
p2258
VVBN
p2259
tp2260
Vnmod
p2261
(Vtreatment
p2262
VNN
p2263
tp2264
tp2265
I1
s((g1409
g1410
tp2266
Vdobj
p2267
(Vlife
p2268
VNN
p2269
tp2270
tp2271
I1
s((Vrace
p2272
VNN
p2273
tp2274
Vcompound
p2275
(Vroot
p2276
VNN
p2277
tp2278
tp2279
I1
s((g2246
g2247
tp2280
Vccomp
p2281
(g1931
g1932
tp2282
tp2283
I1
s(g40
Vconj
p2284
(g2028
g2029
tp2285
tp2286
I1
s((g1553
g1554
tp2287
Vconj
p2288
(g2272
g2273
tp2289
tp2290
I1
s(g96
Vnmod
p2291
(g1413
g1414
tp2292
tp2293
I1
s(g613
Vdep
p2294
(Vgreys
p2295
VNNS
p2296
tp2297
tp2298
I4
s(g1138
Vacl:relcl
p2299
(g770
g771
tp2300
tp2301
I1
s(g323
Vcompound
p2302
(Vbeings
p2303
VNNS
p2304
tp2305
tp2306
I1
s(g753
Vdep
p2307
(g1528
g1529
tp2308
tp2309
I1
s(g741
Vaux
p2310
(Vwould
p2311
VMD
p2312
tp2313
tp2314
I1
s((g826
g827
tp2315
Vamod
p2316
(Vslit
p2317
VJJ
p2318
tp2319
tp2320
I1
s(g219
Vdep
p2321
(Vknown
p2322
VJJ
p2323
tp2324
tp2325
I1
s(g2030
Vnmod
p2326
(Vmatter
p2327
VNN
p2328
tp2329
tp2330
I1
s((Vnature
p2331
VNN
p2332
tp2333
Vnmod
p2334
(Vrigidly
p2335
VNN
p2336
tp2337
tp2338
I1
s(g1296
Vadvmod
p2339
(g1072
g1073
tp2340
tp2341
I1
s((g1047
g1048
tp2342
Vcompound
p2343
(Vearth
p2344
VNN
p2345
tp2346
tp2347
I1
s((g1946
g1947
tp2348
Vcompound
p2349
(Vearth
p2350
VNN
p2351
tp2352
tp2353
I3
s(g2260
Vxcomp
p2354
(Vcruel
p2355
VJJ
p2356
tp2357
tp2358
I1
s((g2322
g2323
tp2359
Vnmod
p2360
(Vinteract
p2361
VNN
p2362
tp2363
tp2364
I1
s((g1797
g1798
tp2365
Vxcomp
p2366
(g2059
g2060
tp2367
tp2368
I1
s(g613
Vnummod
p2369
(V1
p2370
VCD
p2371
tp2372
tp2373
I1
s(g181
Vconj
p2374
(g203
g204
tp2375
tp2376
I1
s((g2130
g2131
tp2377
Vamod
p2378
(Vpresent
p2379
VJJ
p2380
tp2381
tp2382
I1
s((g1486
g1487
tp2383
Vamod
p2384
(Vconquering
p2385
VJJ
p2386
tp2387
tp2388
I1
s((g2154
g2155
tp2389
Vadvcl
p2390
(Vdisposition
p2391
VNN
p2392
tp2393
tp2394
I1
s(g1290
Vnmod
p2395
(Vworld
p2396
VNN
p2397
tp2398
tp2399
I1
s(g1118
Vnmod
p2400
(Vcolor
p2401
VNN
p2402
tp2403
tp2404
I1
s((g1838
g1839
tp2405
Vxcomp
p2406
(g528
g529
tp2407
tp2408
I1
s(g262
Vadvcl
p2409
(g228
g229
tp2410
tp2411
I1
s((Vclasses
p2412
VNNS
p2413
tp2414
Vamod
p2415
(Vsocial
p2416
VJJ
p2417
tp2418
tp2419
I1
s((Vread
p2420
VVBN
p2421
tp2422
Vccomp
p2423
(g665
g666
tp2424
tp2425
I1
s((g1639
g1640
tp2426
Vdobj
p2427
(g2008
g2009
tp2428
tp2429
I1
s(g1104
Vadvmod
p2430
(Vhighly
p2431
VRB
p2432
tp2433
tp2434
I1
s((g42
g43
tp2435
Vnmod
p2436
(Vlist
p2437
VNN
p2438
tp2439
tp2440
I1
s(g2244
Vcsubj
p2441
(g1011
g1012
tp2442
tp2443
I1
s(g711
Vnsubjpass
p2444
(Ventities
p2445
VNNS
p2446
tp2447
tp2448
I1
s((g1128
g1129
tp2449
Vnmod
p2450
(Vtime
p2451
VNN
p2452
tp2453
tp2454
I1
s((Vheight
p2455
VNN
p2456
tp2457
Vdep
p2458
(V5-6ft
p2459
VJJ
p2460
tp2461
tp2462
I1
s(g270
Vamod
p2463
(Vfacial
p2464
VJJ
p2465
tp2466
tp2467
I2
s((g66
g67
tp2468
Vamod
p2469
(Vmid
p2470
VJJ
p2471
tp2472
tp2473
I1
s((g1687
g1688
tp2474
Vamod
p2475
(Vmany
p2476
VJJ
p2477
tp2478
tp2479
I1
s(g1779
Vdobj
p2480
(g1615
g1616
tp2481
tp2482
I1
s((Vgenetics
p2483
VNNS
p2484
tp2485
Vamod
p2486
(Vinsectoidal
p2487
VJJ
p2488
tp2489
tp2490
I1
s(g2075
Vdep
p2491
(g1445
g1446
tp2492
tp2493
I1
s(g1401
Vamod
p2494
(Vgenuine
p2495
VJJ
p2496
tp2497
tp2498
I1
s((Vmexico
p2499
VNN
p2500
tp2501
Vamod
p2502
(Vnew
p2503
VJJ
p2504
tp2505
tp2506
I1
s((Vpleiades
p2507
VNNS
p2508
tp2509
Vconj
p2510
(g329
g330
tp2511
tp2512
I1
s(g998
Vconj
p2513
(g891
g892
tp2514
tp2515
I1
s((Vinfluence
p2516
VVB
p2517
tp2518
Vnmod
p2519
(g2213
g2214
tp2520
tp2521
I1
s(g64
Vdobj
p2522
(g2134
g2135
tp2523
tp2524
I1
s(g16
Vcompound
p2525
(Vmaster
p2526
VNN
p2527
tp2528
tp2529
I1
s(g2457
Vamod
p2530
(Vnormal
p2531
VJJ
p2532
tp2533
tp2534
I1
s(g1157
Vnmod
p2535
(g1248
g1249
tp2536
tp2537
I1
s(g1013
Vdiscourse
p2538
(Vplease
p2539
VVB
p2540
tp2541
tp2542
I1
s((Vmilitary
p2543
VJJ
p2544
tp2545
Vadvmod
p2546
(Vapparently
p2547
VRB
p2548
tp2549
tp2550
I1
s(g2414
Vamod
p2551
(Vmain
p2552
VJJ
p2553
tp2554
tp2555
I1
s((g1521
g1522
tp2556
Vamod
p2557
(Vnew
p2558
VJJ
p2559
tp2560
tp2561
I1
s(g1212
Vcompound
p2562
(Vlife
p2563
VNN
p2564
tp2565
tp2566
I1
s((Vunderstand
p2567
VVBP
p2568
tp2569
Vccomp
p2570
(g236
g237
tp2571
tp2572
I1
s(g197
Vnmod
p2573
(Vspecies
p2574
VNNS
p2575
tp2576
tp2577
I1
s(g484
Vconj
p2578
(Vblunt
p2579
VJJ
p2580
tp2581
tp2582
I1
s((g2262
g2263
tp2583
Vnmod
p2584
(g817
g818
tp2585
tp2586
I1
s(g1282
Vaux
p2587
(Vcould
p2588
VMD
p2589
tp2590
tp2591
I1
s((g191
g192
tp2592
Vnmod
p2593
(Vzetas
p2594
VNNS
p2595
tp2596
tp2597
I1
s((Vearth
p2598
VNN
p2599
tp2600
Vnmod
p2601
(Vtime
p2602
VNN
p2603
tp2604
tp2605
I1
s(g627
Vnmod
p2606
(g1809
g1810
tp2607
tp2608
I1
s(g1609
Vconj
p2609
(g1911
g1912
tp2610
tp2611
I1
s(g1425
Vparataxis
p2612
(g244
g245
tp2613
tp2614
I1
s(g339
Vnmod
p2615
(Vregard
p2616
VNN
p2617
tp2618
tp2619
I1
s((Vcloning
p2620
VNN
p2621
tp2622
Vamod
p2623
(Vsuccessive
p2624
VJJ
p2625
tp2626
tp2627
I1
s((Vtechnologies
p2628
VNNS
p2629
tp2630
Vacl:relcl
p2631
(g1017
g1018
tp2632
tp2633
I1
s((Vhumans
p2634
VNNS
p2635
tp2636
Vcase
p2637
(Vtowards
p2638
VIN
p2639
tp2640
tp2641
I2
s(g1425
Vcompound
p2642
(Vtype
p2643
VNN
p2644
tp2645
tp2646
I2
s((Vfunction
p2647
VVBP
p2648
tp2649
Vnmod
p2650
(Vmode
p2651
VNN
p2652
tp2653
tp2654
I1
s(g1343
Vxcomp
p2655
(Vhostile
p2656
VJJ
p2657
tp2658
tp2659
I1
s(g1779
Vconj
p2660
(g22
g23
tp2661
tp2662
I1
s(g2215
Vamod
p2663
(Vpolitical
p2664
VJJ
p2665
tp2666
tp2667
I1
s((g873
g874
tp2668
Vcompound
p2669
(Vzeta
p2670
VNN
p2671
tp2672
tp2673
I1
s((g10
g11
tp2674
Vnmod
p2675
(Vcloning
p2676
VNN
p2677
tp2678
tp2679
I1
s((g381
g382
tp2680
Vnmod
p2681
(Vtype
p2682
VNN
p2683
tp2684
tp2685
I1
s(g1045
Vadvmod
p2686
(Vmuch
p2687
VRB
p2688
tp2689
tp2690
I1
s(g1952
Vadvmod
p2691
(Vapparently
p2692
VRB
p2693
tp2694
tp2695
I1
s(g557
Vadvcl
p2696
(g641
g642
tp2697
tp2698
I1
s((Vuseful
p2699
VJJ
p2700
tp2701
Vadvmod
p2702
(Votherwise
p2703
VRB
p2704
tp2705
tp2706
I1
s((g395
g396
tp2707
Vconj
p2708
(g2699
g2700
tp2709
tp2710
I1
s((Vdealing
p2711
VVBG
p2712
tp2713
Vadvcl
p2714
(g1766
g1767
tp2715
tp2716
I1
s(g2414
Vnummod
p2717
(Vtwo
p2718
VCD
p2719
tp2720
tp2721
I1
s(g109
Vnsubj
p2722
(g147
g148
tp2723
tp2724
I1
s(g2280
Vdep
p2725
(g1088
g1089
tp2726
tp2727
I1
s(g1309
Vamod
p2728
(g657
g658
tp2729
tp2730
I1
s(g1471
Vxcomp
p2731
(g1668
g1669
tp2732
tp2733
I1
s((g1715
g1716
tp2734
Vamod
p2735
(Vdove-like
p2736
VJJ
p2737
tp2738
tp2739
I1
s((g792
g793
tp2740
Vacl
p2741
(g2145
g2146
tp2742
tp2743
I1
s(g157
Vconj
p2744
(g1439
g1440
tp2745
tp2746
I1
s((g288
g289
tp2747
Vnmod
p2748
(Vgreys
p2749
VNNS
p2750
tp2751
tp2752
I1
s(g811
Vnsubj
p2753
(Vplanet
p2754
VNN
p2755
tp2756
tp2757
I1
s(g2114
Vnmod
p2758
(g597
g598
tp2759
tp2760
I1
s(g1617
Vnmod
p2761
(g909
g910
tp2762
tp2763
I1
s((Vseem
p2764
VVBP
p2765
tp2766
Vxcomp
p2767
(g2412
g2413
tp2768
tp2769
I1
s(g363
Vcompound
p2770
(Vresponse
p2771
VNN
p2772
tp2773
tp2774
I1
s(g2545
Vnmod
p2775
(g2331
g2332
tp2776
tp2777
I1
s(g1393
Vnmod
p2778
(g788
g789
tp2779
tp2780
I1
s(g703
Vdobj
p2781
(Vbellatrax
p2782
VNN
p2783
tp2784
tp2785
I1
s((g1789
g1790
tp2786
Vnmod
p2787
(g163
g164
tp2788
tp2789
I1
s((g1805
g1806
tp2790
Vnummod
p2791
(V3.5
p2792
VCD
p2793
tp2794
tp2795
I1
s((g2391
g2392
tp2796
Vamod
p2797
(g252
g253
tp2798
tp2799
I1
s((Vappear
p2800
VVBP
p2801
tp2802
Vnmod
p2803
(g2455
g2456
tp2804
tp2805
I1
s(g1447
Vaux
p2806
(Vwould
p2807
VMD
p2808
tp2809
tp2810
I2
s((g905
g906
tp2811
Vnmod
p2812
(g853
g854
tp2813
tp2814
I1
s((Vknow
p2815
VVBP
p2816
tp2817
Vccomp
p2818
(g1451
g1452
tp2819
tp2820
I1
s(g1855
Vnsubj
p2821
(Vone
p2822
VPRP
p2823
tp2824
tp2825
I1
s(g1768
Vnsubjpass
p2826
(g1871
g1872
tp2827
tp2828
I1
s(g2209
Vdobj
p2829
(g2164
g2165
tp2830
tp2831
I1
s(g2280
Vconj
p2832
(g2815
g2816
tp2833
tp2834
I1
s(g24
Vxcomp
p2835
(g115
g116
tp2836
tp2837
I1
s(g2252
Vnmod
p2838
(Vhumankind
p2839
VNN
p2840
tp2841
tp2842
I1
s(g2260
Vadvmod
p2843
(Vtherefore
p2844
VRB
p2845
tp2846
tp2847
I1
s(g1309
Vamod
p2848
(Vspiritual
p2849
VJJ
p2850
tp2851
tp2852
I1
s(g2747
Vamod
p2853
(Vorange
p2854
VJJ
p2855
tp2856
tp2857
I1
s(g1196
Vamod
p2858
(Vgreat
p2859
VJJ
p2860
tp2861
tp2862
I1
s((g34
g35
tp2863
Vnmod
p2864
(g321
g322
tp2865
tp2866
I1
s(g1039
Vdobj
p2867
(g1567
g1568
tp2868
tp2869
I1
s(g1609
Vdep
p2870
(Vextract
p2871
VVB
p2872
tp2873
tp2874
I1
s(g1387
Vconj
p2875
(g2258
g2259
tp2876
tp2877
I1
s((Varcturus
p2878
VNNS
p2879
tp2880
Vconj
p2881
(Vvega
p2882
VNN
p2883
tp2884
tp2885
I1
s(g2232
Vadvmod
p2886
(Valso
p2887
VRB
p2888
tp2889
tp2890
I1
s(g2501
Vconj
p2891
(Vnevada
p2892
VNN
p2893
tp2894
tp2895
I1
s(g48
Vnmod
p2896
(Vgreys
p2897
VNNS
p2898
tp2899
tp2900
I2
s(g1031
Vnmod
p2901
(g2499
g2500
tp2902
tp2903
I1
s((Vanyone
p2904
VNN
p2905
tp2906
Vacl:relcl
p2907
(g391
g392
tp2908
tp2909
I1
s(g141
Vnmod
p2910
(g418
g419
tp2911
tp2912
I1
s((Vrussia
p2913
VNN
p2914
tp2915
Vamod
p2916
(Veastern
p2917
VJJ
p2918
tp2919
tp2920
I1
s((g111
g112
tp2921
Vcompound
p2922
(Vorion
p2923
VNN
p2924
tp2925
tp2926
I1
s((g713
g714
tp2927
Vnmod
p2928
(g506
g507
tp2929
tp2930
I1
s(g492
Vnmod
p2931
(g2634
g2635
tp2932
tp2933
I1
s(g667
Vamod
p2934
(Vdying
p2935
VVBG
p2936
tp2937
tp2938
I1
s((Vtend
p2939
VVBP
p2940
tp2941
Vxcomp
p2942
(g2516
g2517
tp2943
tp2944
I1
s(g2740
Vamod
p2945
(Vlarge
p2946
VJJ
p2947
tp2948
tp2949
I1
s(g2266
Vadvmod
p2950
(Vadequately
p2951
VRB
p2952
tp2953
tp2954
I1
s(g64
Vadvcl
p2955
(g2126
g2127
tp2956
tp2957
I1
s(g2389
Vnsubj
p2958
(Ventities
p2959
VNNS
p2960
tp2961
tp2962
I1
s((Vlives
p2963
VNNS
p2964
tp2965
Vamod
p2966
(Vhuman
p2967
VJJ
p2968
tp2969
tp2970
I1
s((g18
g19
tp2971
Vamod
p2972
(Vreptilian-type
p2973
VJJ
p2974
tp2975
tp2976
I1
s(g1182
Vconj
p2977
(Vcapable
p2978
VJJ
p2979
tp2980
tp2981
I1
s(g1750
Vnsubj
p2982
(Ventities
p2983
VNNS
p2984
tp2985
tp2986
I1
s(g1188
Vamod
p2987
(Vpossible
p2988
VJJ
p2989
tp2990
tp2991
I1
s(g371
Vnmod
p2992
(g2483
g2484
tp2993
tp2994
I1
s(g1433
Vconj
p2995
(Vasteroid
p2996
VJJ
p2997
tp2998
tp2999
I1
s(g538
Vdobj
p3000
(g2963
g2964
tp3001
tp3002
I1
s(g1082
Vnmod
p3003
(Vapproach
p3004
VNN
p3005
tp3006
tp3007
I1
s((g2077
g2078
tp3008
Vnmod
p3009
(Vcattle
p3010
VNNS
p3011
tp3012
tp3013
I1
s((g524
g525
tp3014
Vacl
p3015
(g1643
g1644
tp3016
tp3017
I1
s(g420
Vamod
p3018
(Vfacial
p3019
VJJ
p3020
tp3021
tp3022
I1
s(g2018
Vamod
p3023
(Vgrey
p3024
VJJ
p3025
tp3026
tp3027
I1
s(g2287
Vnsubj
p3028
(Vreticuli
p3029
VNNS
p3030
tp3031
tp3032
I1
s(g1629
Vxcomp
p3033
(Vweaker
p3034
VJJR
p3035
tp3036
tp3037
I1
s(g2252
Vnsubj
p3038
(Valiens
p3039
VNNS
p3040
tp3041
tp3042
I1
s(g1728
Vacl:relcl
p3043
(g1051
g1052
tp3044
tp3045
I1
s(g2422
Vaux
p3046
(V've
p3047
VVBP
p3048
tp3049
tp3050
I1
s((g2651
g2652
tp3051
Vacl:relcl
p3052
(g2543
g2544
tp3053
tp3054
I1
s(g213
Vdobj
p3055
(Vheight
p3056
VNN
p3057
tp3058
tp3059
I1
s((g532
g533
tp3060
Vnmod
p3061
(g2904
g2905
tp3062
tp3063
I1
s(g1513
Vadvmod
p3064
(g1264
g1265
tp3065
tp3066
I1
s(g299
Vnmod
p3067
(g2913
g2914
tp3068
tp3069
I1
s((g1084
g1085
tp3070
Vnmod
p3071
(Vhands
p3072
VNNS
p3073
tp3074
tp3075
I1
s(g2090
Vdobj
p3076
(g944
g945
tp3077
tp3078
I1
s((Vconsidering
p3079
VVBG
p3080
tp3081
Vdobj
p3082
(g1186
g1187
tp3083
tp3084
I1
s(g2600
Vadvmod
p3085
(Vmuch
p3086
VRB
p3087
tp3088
tp3089
I1
s(g522
Vadvmod
p3090
(Vgrey
p3091
VRB
p3092
tp3093
tp3094
I1
s((g697
g698
tp3095
Vxcomp
p3096
(g1801
g1802
tp3097
tp3098
I1
s(g1811
Vamod
p3099
(Vlarge
p3100
VJJ
p3101
tp3102
tp3103
I1
s(g2252
Vadvmod
p3104
(Vsupposedly
p3105
VRB
p3106
tp3107
tp3108
I1
s((g3004
g3005
tp3109
Vnmod
p3110
(Vtime
p3111
VNN
p3112
tp3113
tp3114
I1
s((g1389
g1390
tp3115
Vdep
p3116
(g498
g499
tp3117
tp3118
I1
s(g573
Vadvcl
p3119
(g2711
g2712
tp3120
tp3121
I1
s(g1693
Vamod
p3122
(Vblack
p3123
VJJ
p3124
tp3125
tp3126
I1
s((g2335
g2336
tp3127
Vacl
p3128
(g830
g831
tp3129
tp3130
I1
s(g2342
Vnmod
p3131
(Vtime
p3132
VNN
p3133
tp3134
tp3135
I1
s(g938
Vcompound
p3136
(Vtype
p3137
VNN
p3138
tp3139
tp3140
I2
s(g1563
Vconj
p3141
(g649
g650
tp3142
tp3143
I1
s(g1324
Vnmod
p3144
(Vindividual
p3145
VNN
p3146
tp3147
tp3148
I1
s(g1629
Vnmod
p3149
(g2620
g2621
tp3150
tp3151
I1
s((g2682
g2683
tp3152
Vdep
p3153
(g1341
g1342
tp3154
tp3155
I1
s(g772
Vdobj
p3156
(g1482
g1483
tp3157
tp3158
I1
s(g725
Vadvcl
p3159
(g964
g965
tp3160
tp3161
I1
s(g1182
Vconj
p3162
(g2219
g2220
tp3163
tp3164
I1
s((g1611
g1612
tp3165
Vnmod
p3166
(g1842
g1843
tp3167
tp3168
I1
s((g1225
g1226
tp3169
Vnummod
p3170
(V4.5
p3171
VCD
p3172
tp3173
tp3174
I1
s((g1658
g1659
tp3175
Vnmod
p3176
(Vabductees
p3177
VNNS
p3178
tp3179
tp3180
I1
s(g1952
Vconj
p3181
(g3079
g3080
tp3182
tp3183
I1
s(g1836
Vnmod
p3184
(g1586
g1587
tp3185
tp3186
I1
ssS'unfiltered'
p3187
(dp3188
g13
I1
s(g181
Vnsubj
p3189
(Vhere
p3190
VRB
p3191
tp3192
tp3193
I1
s(g307
Vdet
p3194
(Va
p3195
VDT
p3196
tp3197
tp3198
I1
sg29
I1
s(g573
Vcop
p3199
(Vbe
p3200
VVB
p3201
tp3202
tp3203
I1
sg37
I1
sg45
I1
s(g246
Vcc
p3204
(Vand
p3205
VCC
p3206
tp3207
tp3208
I1
s(g711
Vcc
p3209
(Vor
p3210
VCC
p3211
tp3212
tp3213
I1
s((g1284
g1285
tp3214
Vcop
p3215
(Vbe
p3216
VVB
p3217
tp3218
tp3219
I1
sg53
I1
s(g733
Vnsubj
p3220
(Vand
p3221
VNNP
p3222
tp3223
tp3224
I1
s(g930
Vcc
p3225
(Vor
p3226
VCC
p3227
tp3228
tp3229
I1
s(g339
Vnsubj
p3230
(Vthey
p3231
VPRP
p3232
tp3233
tp3234
I1
sg21
I1
sg69
I1
s(g2668
Vdet
p3235
(Vthe
p3236
VDT
p3237
tp3238
tp3239
I1
sg85
I1
sg312
I1
s(g2389
Vcc
p3240
(Vbut
p3241
VCC
p3242
tp3243
tp3244
I1
s(g2449
Vcase
p3245
(Vby
p3246
VIN
p3247
tp3248
tp3249
I1
s(g1803
Vmark
p3250
(Vto
p3251
VTO
p3252
tp3253
tp3254
I1
s(g1045
Vauxpass
p3255
(Vbe
p3256
VVB
p3257
tp3258
tp3259
I1
s(g56
Vnsubj
p3260
(Vthese
p3261
VDT
p3262
tp3263
tp3264
I1
s(g1844
Vcase
p3265
(Vfrom
p3266
VIN
p3267
tp3268
tp3269
I1
sg101
I1
sg2820
I1
sg114
I1
s((g2574
g2575
tp3270
Vnmod:poss
p3271
(Vtheir
p3272
VPRP$
p3273
tp3274
tp3275
I1
sg130
I1
s(g2110
Vcop
p3276
(Vare
p3277
VVBP
p3278
tp3279
tp3280
I2
s(g3214
Vcase
p3281
(Vof
p3282
VIN
p3283
tp3284
tp3285
I1
sg138
I1
s(g1836
Vcc
p3286
(Vand
p3287
VCC
p3288
tp3289
tp3290
I1
s((g2361
g2362
tp3291
Vcase
p3292
(Vto
p3293
VTO
p3294
tp3295
tp3296
I1
sg146
I1
s(g1118
Vcc
p3297
(Vand
p3298
VCC
p3299
tp3300
tp3301
I1
sg154
I1
s(g1023
Vcop
p3302
(Vbe
p3303
VVB
p3304
tp3305
tp3306
I1
s((Vyou
p3307
VPRP
p3308
tp3309
Vcase
p3310
(Vof
p3311
VIN
p3312
tp3313
tp3314
I1
s(g2114
Vcase
p3315
(Vto
p3316
VTO
p3317
tp3318
tp3319
I1
s(g678
Vcase
p3320
(Vby
p3321
VIN
p3322
tp3323
tp3324
I1
sg170
I1
sg2290
I1
sg178
I1
sg186
I1
sg194
I1
sg202
I1
sg210
I1
s(g573
Vcase
p3325
(Vof
p3326
VIN
p3327
tp3328
tp3329
I1
s((g408
g409
tp3330
Vneg
p3331
(Vno
p3332
VDT
p3333
tp3334
tp3335
I1
sg218
I1
sg2831
I1
s((g240
g241
tp3336
Vnmod:poss
p3337
(Vtheir
p3338
VPRP$
p3339
tp3340
tp3341
I1
sg227
I1
s(g1623
Vdet
p3342
(Vthe
p3343
VDT
p3344
tp3345
tp3346
I1
sg235
I1
sg1760
I1
sg738
I1
sg243
I1
sg2434
I1
s((Vtype
p3347
VNN
p3348
tp3349
Vdet
p3350
(Vthis
p3351
VDT
p3352
tp3353
tp3354
I3
sg251
I1
s(g2747
Vdet
p3355
(Vthe
p3356
VDT
p3357
tp3358
tp3359
I1
s(g2136
Vnmod:poss
p3360
(Vour
p3361
VPRP$
p3362
tp3363
tp3364
I1
sg1771
I1
sg259
I1
s((Vnot
p3365
VRB
p3366
tp3367
Vnmod
p3368
(g2598
g2599
tp3369
tp3370
I1
s(g719
Vmark
p3371
(Vthat
p3372
VIN
p3373
tp3374
tp3375
I1
sg2015
I1
s(g1963
Vnsubj
p3376
(Vall
p3377
VDT
p3378
tp3379
tp3380
I1
sg267
I1
s(g1836
Vnsubjpass
p3381
(Vit
p3382
VPRP
p3383
tp3384
tp3385
I1
s(g2435
Vcase
p3386
(Vfor
p3387
VIN
p3388
tp3389
tp3390
I1
sg275
I1
sg283
I1
sg1223
I1
sg296
I1
s((g3145
g3146
tp3391
Vcase
p3392
(Vfor
p3393
VIN
p3394
tp3395
tp3396
I1
s((g2839
g2840
tp3397
Vcase
p3398
(Vof
p3399
VIN
p3400
tp3401
tp3402
I1
sg77
I1
sg1696
I1
s(g719
Vnsubj
p3403
(Vthey
p3404
VPRP
p3405
tp3406
tp3407
I2
sg683
I1
sg2611
I1
s(g2796
Vmark
p3408
(Vas
p3409
VIN
p3410
tp3411
tp3412
I1
sg981
I1
s(g643
Vmark
p3413
(Vin
p3414
VIN
p3415
tp3416
tp3417
I1
sg93
I2
s(g331
Vcop
p3418
(Vare
p3419
VVBP
p3420
tp3421
tp3422
I1
s((Vis
p3423
VVBZ
p3424
tp3425
Vnsubj
p3426
(g1917
g1918
tp3427
tp3428
I1
sg320
I1
sg328
I1
s(g2287
Vcc
p3429
(Vand
p3430
VCC
p3431
tp3432
tp3433
I1
sg2080
I1
s(g64
Vmark
p3434
(Vto
p3435
VTO
p3436
tp3437
tp3438
I1
s((g3414
g3415
tp3439
Vmwe
p3440
(Vorder
p3441
VNN
p3442
tp3443
tp3444
I1
sg336
I1
sg344
I1
s((g1190
g1191
tp3445
Vcase
p3446
(Vof
p3447
VIN
p3448
tp3449
tp3450
I1
sg2837
I1
s((g272
g273
tp3451
Vneg
p3452
(Vno
p3453
VDT
p3454
tp3455
tp3456
I1
s(g1053
Vnsubj
p3457
(Vthat
p3458
VWDT
p3459
tp3460
tp3461
I1
s(g1090
Vcase
p3462
(Vby
p3463
VIN
p3464
tp3465
tp3466
I1
s(g1039
Vnsubj
p3467
(Vi
p3468
VFW
p3469
tp3470
tp3471
I1
sg352
I1
sg360
I1
sg368
I1
sg376
I1
s(g1019
Vnsubj
p3472
(Vthat
p3473
VWDT
p3474
tp3475
tp3476
I1
s(g1803
Vcop
p3477
(Vbe
p3478
VVB
p3479
tp3480
tp3481
I1
s(g1952
Vcop
p3482
(Vare
p3483
VVBP
p3484
tp3485
tp3486
I1
s((g2451
g2452
tp3487
Vcase
p3488
(Vat
p3489
VIN
p3490
tp3491
tp3492
I4
s((Vhad
p3493
VVBN
p3494
tp3495
Vnsubj
p3496
(Vthey
p3497
VPRP
p3498
tp3499
tp3500
I1
s(g703
Vauxpass
p3501
(Vare
p3502
VVBP
p3503
tp3504
tp3505
I1
s(g573
Vmark
p3506
(Vto
p3507
VTO
p3508
tp3509
tp3510
I1
s(g2880
Vcase
p3511
(Vfrom
p3512
VIN
p3513
tp3514
tp3515
I1
s(g307
Vcase
p3516
(Vin
p3517
VIN
p3518
tp3519
tp3520
I1
s(g219
Vcase
p3521
(Vof
p3522
VIN
p3523
tp3524
tp3525
I2
s(g1453
Vnsubj
p3526
(Vfew
p3527
VJJ
p3528
tp3529
tp3530
I1
s((g3039
g3040
tp3531
Vdet
p3532
(Vthese
p3533
VDT
p3534
tp3535
tp3536
I1
sg390
I1
s(g1867
Vmark
p3537
(Vby
p3538
VIN
p3539
tp3540
tp3541
I1
s(g1768
Vcc
p3542
(Vbut
p3543
VCC
p3544
tp3545
tp3546
I1
s(g133
Vadvmod
p3547
(Vother
p3548
VJJ
p3549
tp3550
tp3551
I1
sg398
I1
sg406
I2
s(g1250
Vcase
p3552
(Vover
p3553
VIN
p3554
tp3555
tp3556
I1
sg411
I1
s(g460
Vcc
p3557
(Vand
p3558
VCC
p3559
tp3560
tp3561
I1
sg417
I1
s((Vhave
p3562
VVB
p3563
tp3564
Vdobj
p3565
(g1722
g1723
tp3566
tp3567
I1
s(g2569
Vnsubj
p3568
(g3468
VFW
p3569
tp3570
tp3571
I1
s(g1855
Vdet
p3572
(Vthe
p3573
VDT
p3574
tp3575
tp3576
I1
s(g8
Vaux
p3577
(Vhave
p3578
VVBP
p3579
tp3580
tp3581
I1
sg433
I1
s(g1830
Vmark
p3582
(Vto
p3583
VTO
p3584
tp3585
tp3586
I1
s((g3111
g3112
tp3587
Vamod
p3588
(Vbeing
p3589
VVBG
p3590
tp3591
tp3592
I1
sg700
I1
sg449
I1
s(g586
Vcase
p3593
(Vwith
p3594
VIN
p3595
tp3596
tp3597
I1
s(g3495
Vdobj
p3598
(Vpart
p3599
VNN
p3600
tp3601
tp3602
I1
sg465
I1
s(g879
Vcase
p3603
(Vas
p3604
VIN
p3605
tp3606
tp3607
I1
sg473
I1
s((g2327
g2328
tp3608
Vcase
p3609
(Von
p3610
VIN
p3611
tp3612
tp3613
I1
s(g1061
Vaux
p3614
(Vhave
p3615
VVBP
p3616
tp3617
tp3618
I1
sg481
I1
sg2325
I1
sg908
I1
sg489
I1
sg497
I1
s(g635
Vcase
p3619
(Vof
p3620
VIN
p3621
tp3622
tp3623
I1
sg505
I1
s(g270
Vcc
p3624
(Vand
p3625
VCC
p3626
tp3627
tp3628
I1
sg519
I1
sg527
I1
s(g3495
Vadvmod
p3629
(Vsupposedly
p3630
VRB
p3631
tp3632
tp3633
I1
sg535
I1
s((Vme
p3634
VPRP
p3635
tp3636
Vcase
p3637
(Vto
p3638
VTO
p3639
tp3640
tp3641
I1
s((Vthose
p3642
VDT
p3643
tp3644
Vnmod
p3645
(Vpower
p3646
VNN
p3647
tp3648
tp3649
I1
s((Vare
p3650
VVBP
p3651
tp3652
Vnsubj
p3653
(g171
g172
tp3654
tp3655
I1
s(g2075
Vnsubj
p3656
(Vwe
p3657
VPRP
p3658
tp3659
tp3660
I1
sg543
I1
sg549
I1
s((Vgreys
p3661
VNNS
p3662
tp3663
Vdet
p3664
(g3195
VDT
p3665
tp3666
tp3667
I2
sg554
I1
sg562
I1
sg570
I1
s(g2880
Vcop
p3668
(Vare
p3669
VVBP
p3670
tp3671
tp3672
I1
sg578
I1
s(g1993
Vaux
p3673
(Vare
p3674
VVBP
p3675
tp3676
tp3677
I2
sg583
I1
sg591
I1
sg596
I1
sg604
I1
s((g984
g985
tp3678
Vcase
p3679
(Von
p3680
VIN
p3681
tp3682
tp3683
I1
s(g1290
Vcase
p3684
(Vin
p3685
VIN
p3686
tp3687
tp3688
I1
sg610
I1
s((g680
g681
tp3689
Vdet
p3690
(Vthese
p3691
VDT
p3692
tp3693
tp3694
I1
sg618
I3
s(g1704
Vdet
p3695
(Vthe
p3696
VDT
p3697
tp3698
tp3699
I2
sg624
I1
s(g565
Vdet
p3700
(Vthe
p3701
VDT
p3702
tp3703
tp3704
I1
s(g1401
Vcc
p3705
(Vand
p3706
VCC
p3707
tp3708
tp3709
I1
s(g1861
Vcase
p3710
(Vof
p3711
VIN
p3712
tp3713
tp3714
I1
sg632
I1
s(g1768
Vadvmod
p3715
(Vhere
p3716
VRB
p3717
tp3718
tp3719
I1
sg1829
I1
s((g2168
g2169
tp3720
Vadvmod
p3721
(Vmore
p3722
VRBR
p3723
tp3724
tp3725
I1
sg2347
I1
s((g1063
g1064
tp3726
Vnmod
p3727
(Vof
p3728
VIN
p3729
tp3730
tp3731
I1
s(g2509
Vcc
p3732
(Vand
p3733
VCC
p3734
tp3735
tp3736
I1
s((g3646
g3647
tp3737
Vcase
p3738
(Vin
p3739
VIN
p3740
tp3741
tp3742
I1
s(g339
Vcop
p3743
(Vare
p3744
VVBP
p3745
tp3746
tp3747
I1
sg648
I1
sg664
I1
s((Vhave
p3748
VVBP
p3749
tp3750
Vconj
p3751
(g739
g740
tp3752
tp3753
I1
sg2358
I1
sg675
I1
s(g2215
Vcc
p3754
(Vand
p3755
VCC
p3756
tp3757
tp3758
I1
s(g2342
Vcase
p3759
(Vwith
p3760
VIN
p3761
tp3762
tp3763
I1
s((Vhave
p3764
VVBP
p3765
tp3766
Vconj
p3767
(Vknown
p3768
VVBN
p3769
tp3770
tp3771
I1
s(g2182
Vcase
p3772
(Vabout
p3773
VIN
p3774
tp3775
tp3776
I1
s(g811
Vaux
p3777
(Vis
p3778
VVBZ
p3779
tp3780
tp3781
I1
sg689
I1
s(g1433
Vdet
p3782
(g3195
VDT
p3783
tp3784
tp3785
I1
s(g790
Vdet
p3786
(Vthe
p3787
VDT
p3788
tp3789
tp3790
I1
sg695
I1
sg441
I1
sg1661
I1
sg708
I1
s(g2474
Vcase
p3791
(Vthrough
p3792
VIN
p3793
tp3794
tp3795
I1
sg724
I1
s(g1182
Vcc
p3796
(Vand
p3797
VCC
p3798
tp3799
tp3800
I2
s((g3527
g3528
tp3801
Vdet
p3802
(g3195
VDT
p3803
tp3804
tp3805
I1
sg1847
I1
sg730
I1
s(g2160
Vnsubj
p3806
(Vthese
p3807
VDT
p3808
tp3809
tp3810
I1
s(g2120
Vadvmod
p3811
(Vabout
p3812
VRB
p3813
tp3814
tp3815
I1
s(g3115
Vmark
p3816
(Vto
p3817
VTO
p3818
tp3819
tp3820
I1
s(g565
Vcase
p3821
(Vof
p3822
VIN
p3823
tp3824
tp3825
I1
sg744
I1
sg513
I1
s(g246
Vcop
p3826
(Vare
p3827
VVBP
p3828
tp3829
tp3830
I1
s(g3495
Vaux
p3831
(Vhave
p3832
VVBP
p3833
tp3834
tp3835
I1
s((g2401
g2402
tp3836
Vcase
p3837
(Vin
p3838
VIN
p3839
tp3840
tp3841
I1
sg1312
I1
s(g3750
Vadvcl
p3842
(g345
g346
tp3843
tp3844
I1
s(g40
Vcc
p3845
(Vand
p3846
VCC
p3847
tp3848
tp3849
I1
s(g2034
Vadvmod
p3850
(Vjust
p3851
VRB
p3852
tp3853
tp3854
I1
sg769
I1
sg777
I1
sg782
I1
s((g2082
g2083
tp3855
Vnmod:poss
p3856
(Vtheir
p3857
VPRP$
p3858
tp3859
tp3860
I1
sg1858
I1
s((g797
g798
tp3861
Vcase
p3862
(Vby
p3863
VIN
p3864
tp3865
tp3866
I2
s((g1491
g1492
tp3867
Vnmod:poss
p3868
(Vtheir
p3869
VPRP$
p3870
tp3871
tp3872
I1
s(g1453
Vmark
p3873
(Vthat
p3874
VIN
p3875
tp3876
tp3877
I1
sg1228
I1
s(g2280
Vcc
p3878
(Vand
p3879
VCC
p3880
tp3881
tp3882
I1
s(g1750
Vcop
p3883
(Vare
p3884
VVBP
p3885
tp3886
tp3887
I1
s(g1098
Vnmod:poss
p3888
(Vmy
p3889
VPRP$
p3890
tp3891
tp3892
I1
s(g56
Vcop
p3893
(Vare
p3894
VVBP
p3895
tp3896
tp3897
I1
sg800
I1
sg808
I1
sg816
I1
sg3084
I1
sg162
I1
sg1598
I1
s(g1242
Vdet
p3898
(Vthe
p3899
VDT
p3900
tp3901
tp3902
I2
s(g125
Vnsubj
p3903
(Vthat
p3904
VWDT
p3905
tp3906
tp3907
I1
sg824
I1
sg2810
I2
sg829
I1
sg837
I1
s(g1196
Vcase
p3908
(Vof
p3909
VIN
p3910
tp3911
tp3912
I1
s(g538
Vmark
p3913
(Vto
p3914
VTO
p3915
tp3916
tp3917
I1
sg847
I1
s(g1629
Vnsubj
p3918
(Vnow
p3919
VRB
p3920
tp3921
tp3922
I1
s(g3750
Vcc
p3923
(Vand
p3924
VCC
p3925
tp3926
tp3927
I2
sg1622
I1
sg860
I1
sg2877
I1
s(g2110
Vnsubj
p3928
(Vthey
p3929
VPRP
p3930
tp3931
tp3932
I1
sg868
I1
s(g1110
Vmark
p3933
(Vin
p3934
VIN
p3935
tp3936
tp3937
I1
s(g371
Vauxpass
p3938
(Vare
p3939
VVBP
p3940
tp3941
tp3942
I1
sg750
I1
sg2473
I1
sg884
I1
s(g1670
Vcop
p3943
(Vbe
p3944
VVB
p3945
tp3946
tp3947
I1
sg758
I1
sg898
I1
sg903
I1
sg2521
I1
s((g2190
g2191
tp3948
Vcase
p3949
(Vto
p3950
VTO
p3951
tp3952
tp3953
I1
s(g3689
Vcase
p3954
(Vof
p3955
VIN
p3956
tp3957
tp3958
I1
s(g1453
Vaux
p3959
(Vdo
p3960
VVBP
p3961
tp3962
tp3963
I1
sg2206
I1
s((Vhave
p3964
VVBP
p3965
tp3966
Vconj
p3967
(Vare
p3968
VVBP
p3969
tp3970
tp3971
I1
sg2408
I1
sg921
I1
s((g349
g350
tp3972
Vnmod:poss
p3973
(Vtheir
p3974
VPRP$
p3975
tp3976
tp3977
I1
s(g2086
Vmark
p3978
(Vin
p3979
VIN
p3980
tp3981
tp3982
I1
s((g2295
g2296
tp3983
Vdet
p3984
(Vthe
p3985
VDT
p3986
tp3987
tp3988
I7
sg935
I1
sg1356
I1
s(g2010
Vacl:relcl
p3989
(g3748
g3749
tp3990
tp3991
I1
s(g2863
Vdet
p3992
(g3195
VDT
p3993
tp3994
tp3995
I2
sg955
I1
sg963
I1
sg971
I1
sg976
I1
s(g286
Vauxpass
p3996
(Vbeing
p3997
VVBG
p3998
tp3999
tp4000
I1
sg1375
I1
s(g3270
Vcase
p4001
(Vinto
p4002
VIN
p4003
tp4004
tp4005
I1
sg987
I1
sg995
I1
sg1003
I1
s(g165
Vcase
p4006
(Vof
p4007
VIN
p4008
tp4009
tp4010
I2
s(g246
Vnsubj
p4011
(Vthese
p4012
VDT
p4013
tp4014
tp4015
I1
sg1010
I1
sg1016
I1
s(g189
Vnsubj
p4016
(Vthey
p4017
VPRP
p4018
tp4019
tp4020
I1
s(g3051
Vcase
p4021
(Vin
p4022
VIN
p4023
tp4024
tp4025
I1
sg1028
I1
s(g1779
Vaux
p4026
(Vcan
p4027
VMD
p4028
tp4029
tp4030
I1
sg1036
I1
s(g3014
Vdet
p4031
(Vthe
p4032
VDT
p4033
tp4034
tp4035
I4
s(g347
Vcase
p4036
(Von
p4037
VIN
p4038
tp4039
tp4040
I3
s(g2713
Vmark
p4041
(Vin
p4042
VIN
p4043
tp4044
tp4045
I1
sg1044
I1
s(g1274
Vcase
p4046
(Vfor
p4047
VIN
p4048
tp4049
tp4050
I1
s(g753
Vnsubj
p4051
(Vthese
p4052
VDT
p4053
tp4054
tp4055
I1
s((g430
g431
tp4056
Vcase
p4057
(Vby
p4058
VIN
p4059
tp4060
tp4061
I1
sg1058
I1
s(g2863
Vcase
p4062
(Vof
p4063
VIN
p4064
tp4065
tp4066
I2
s(g2707
Vnsubj
p4067
(Vit
p4068
VPRP
p4069
tp4070
tp4071
I1
sg1066
I1
sg1071
I2
s((g1744
g1745
tp4072
Vnmod:poss
p4073
(Vtheir
p4074
VPRP$
p4075
tp4076
tp4077
I1
s(g189
Vcop
p4078
(Vare
p4079
VVBP
p4080
tp4081
tp4082
I1
sg1079
I1
s(g88
Vdet
p4083
(Vthe
p4084
VDT
p4085
tp4086
tp4087
I2
s((Vinteresting
p4088
VJJ
p4089
tp4090
Vdet
p4091
(Vthis
p4092
VDT
p4093
tp4094
tp4095
I1
sg1087
I1
sg1095
I1
sg1101
I1
s(g1670
Vcase
p4096
(Vin
p4097
VIN
p4098
tp4099
tp4100
I1
sg1109
I1
sg1115
I1
sg1121
I1
s(g2128
Vauxpass
p4101
(Vis
p4102
VVBZ
p4103
tp4104
tp4105
I1
sg1126
I1
s(g3587
Vcase
p4106
(Vfor
p4107
VIN
p4108
tp4109
tp4110
I1
s((g1849
g1850
tp4111
Vcase
p4112
(Vto
p4113
VTO
p4114
tp4115
tp4116
I1
sg1137
I1
sg1143
I1
sg1149
I1
sg1154
I1
s(g1811
Vcc
p4117
(Vand
p4118
VCC
p4119
tp4120
tp4121
I1
s(g1343
Vcc
p4122
(Vbut
p4123
VCC
p4124
tp4125
tp4126
I1
s(g48
Vxcomp
p4127
(Vto
p4128
VTO
p4129
tp4130
tp4131
I2
s(g2468
Vcase
p4132
(Vin
p4133
VIN
p4134
tp4135
tp4136
I1
s(g254
Vcc
p4137
(Vor
p4138
VCC
p4139
tp4140
tp4141
I1
s(g2457
Vcase
p4142
(Vof
p4143
VIN
p4144
tp4145
tp4146
I1
sg787
I1
sg1438
I1
s((g2396
g2397
tp4147
Vcase
p4148
(Vof
p4149
VIN
p4150
tp4151
tp4152
I1
sg1162
I1
s(g530
Vmark
p4153
(Vto
p4154
VTO
p4155
tp4156
tp4157
I1
s((g510
g511
tp4158
Vcase
p4159
(Vas
p4160
VIN
p4161
tp4162
tp4163
I1
s((g3177
g3178
tp4164
Vcase
p4165
(Vof
p4166
VIN
p4167
tp4168
tp4169
I1
sg842
I1
s(g238
Vmark
p4170
(Vthat
p4171
VIN
p4172
tp4173
tp4174
I1
sg1168
I1
sg1174
I1
sg1179
I1
s(g1670
Vdet
p4175
(Vthe
p4176
VDT
p4177
tp4178
tp4179
I1
sg1185
I1
s(g1098
Vcop
p4180
(Vis
p4181
VVBZ
p4182
tp4183
tp4184
I1
sg1201
I1
s((Vsome
p4185
VDT
p4186
tp4187
Vnmod
p4188
(g4088
g4089
tp4189
tp4190
I1
s(g1082
Vaux
p4191
(Vhave
p4192
VVBP
p4193
tp4194
tp4195
I1
sg1206
I1
sg1209
I1
sg1217
I1
s(g16
Vcase
p4196
(Vto
p4197
VTO
p4198
tp4199
tp4200
I1
s(g667
Vmark
p4201
(Vthat
p4202
VIN
p4203
tp4204
tp4205
I1
s(g2160
Vcop
p4206
(Vare
p4207
VVBP
p4208
tp4209
tp4210
I1
s(g492
Vamod
p4211
(Vmore
p4212
VJJR
p4213
tp4214
tp4215
I1
s(g1500
Vamod
p4216
(Vown
p4217
VJJ
p4218
tp4219
tp4220
I1
sg122
I1
sg291
I1
s(g3115
Vcop
p4221
(Vbe
p4222
VVB
p4223
tp4224
tp4225
I1
sg795
I1
s(g692
Vmark
p4226
(Vto
p4227
VTO
p4228
tp4229
tp4230
I1
sg1236
I1
s(g2545
Vcop
p4231
(Vis
p4232
VVBZ
p4233
tp4234
tp4235
I1
s(g1855
Vcc
p4236
(Vand
p4237
VCC
p4238
tp4239
tp4240
I1
s(g1879
Vnsubj
p4241
(Vyou
p4242
VPRP
p4243
tp4244
tp4245
I1
sg1241
I1
sg1247
I1
sg1255
I1
sg2482
I1
sg1271
I1
s(g950
Vcase
p4246
(Vto
p4247
VTO
p4248
tp4249
tp4250
I1
sg1279
I1
sg1287
I1
s(g262
Vmark
p4251
(Vto
p4252
VTO
p4253
tp4254
tp4255
I1
sg1295
I1
sg1301
I1
s(g1728
Vdet
p4256
(g3195
VDT
p4257
tp4258
tp4259
I3
sg1306
I1
sg1944
I1
sg1317
I1
sg1323
I1
sg1329
I1
s(g2405
Vnsubj
p4260
(g3468
VFW
p4261
tp4262
tp4263
I1
sg1335
I1
sg1340
I1
sg1348
I1
s((g159
g160
tp4264
Vdet
p4265
(Vthese
p4266
VDT
p4267
tp4268
tp4269
I4
sg2490
I1
sg1364
I1
sg1372
I1
s(g80
Vmark
p4270
(Vto
p4271
VTO
p4272
tp4273
tp4274
I1
sg1378
I1
sg1384
I1
sg1392
I1
s(g315
Vneg
p4275
(g3365
g3366
tp4276
tp4277
I1
sg1398
I1
sg1707
I1
s((g3171
g3172
tp4278
Vadvmod
p4279
(Vabout
p4280
VRB
p4281
tp4282
tp4283
I1
s(g2747
Vcase
p4284
(Vto
p4285
VTO
p4286
tp4287
tp4288
I1
sg1404
I1
s(g922
Vauxpass
p4289
(Vbe
p4290
VVB
p4291
tp4292
tp4293
I1
sg1412
I1
s(g2796
Vdet
p4294
(g3195
VDT
p4295
tp4296
tp4297
I1
s((g2149
g2150
tp4298
Vcase
p4299
(Von
p4300
VIN
p4301
tp4302
tp4303
I1
s(g998
Vcc
p4304
(Vand
p4305
VCC
p4306
tp4307
tp4308
I1
s(g3051
Vdet
p4309
(g3195
VDT
p4310
tp4311
tp4312
I1
sg2933
I1
sg1423
I1
sg2524
I1
s((g761
g762
tp4313
Vcase
p4314
(Vin
p4315
VIN
p4316
tp4317
tp4318
I1
sg1430
I1
s(g1836
Vnmod
p4319
(g3634
g3635
tp4320
tp4321
I1
s(g3726
Vmark
p4322
(Vto
p4323
VTO
p4324
tp4325
tp4326
I1
sg1444
I1
s(g2880
Vcc
p4327
(Vand
p4328
VCC
p4329
tp4330
tp4331
I1
sg1450
I1
sg1458
I1
sg1463
I1
sg1468
I1
sg1476
I1
s(g1019
Vdobj
p4332
(Vthem
p4333
VPRP
p4334
tp4335
tp4336
I1
s(g2971
Vcase
p4337
(Vof
p4338
VIN
p4339
tp4340
tp4341
I1
sg1481
I1
s((Vhave
p4342
VVB
p4343
tp4344
Vdobj
p4345
(g1897
g1898
tp4346
tp4347
I1
s(g1569
Vdet
p4348
(Vany
p4349
VDT
p4350
tp4351
tp4352
I1
s(g2509
Vcop
p4353
(Vare
p4354
VVBP
p4355
tp4356
tp4357
I1
sg1489
I1
s(g3587
Vdet
p4358
(Vthe
p4359
VDT
p4360
tp4361
tp4362
I1
sg1494
I1
s(g1557
Vdep
p4363
(Vmore
p4364
VJJR
p4365
tp4366
tp4367
I1
sg1499
I1
s(g1182
Vadvmod
p4368
(Vmore
p4369
VRBR
p4370
tp4371
tp4372
I1
s(g1379
Vcase
p4373
(Vover
p4374
VIN
p4375
tp4376
tp4377
I1
s((g2792
g2793
tp4378
Vadvmod
p4379
(Vabout
p4380
VRB
p4381
tp4382
tp4383
I1
s(g922
Vmark
p4384
(Vto
p4385
VTO
p4386
tp4387
tp4388
I1
s(g1415
Vdet
p4389
(Vthe
p4390
VDT
p4391
tp4392
tp4393
I1
s(g2010
Vdet
p4394
(Vthe
p4395
VDT
p4396
tp4397
tp4398
I1
s((g2616
g2617
tp4399
Vcase
p4400
(Vin
p4401
VIN
p4402
tp4403
tp4404
I1
s((g1631
g1632
tp4405
Vdet
p4406
(Vthe
p4407
VDT
p4408
tp4409
tp4410
I1
s(g56
Vdet
p4411
(g3195
VDT
p4412
tp4413
tp4414
I1
s(g2509
Vdet
p4415
(Vthe
p4416
VDT
p4417
tp4418
tp4419
I1
s(g667
Vnsubj
p4420
(Vthey
p4421
VPRP
p4422
tp4423
tp4424
I1
s(g2414
Vmark
p4425
(Vto
p4426
VTO
p4427
tp4428
tp4429
I1
sg1516
I1
s(g500
Vcase
p4430
(Vby
p4431
VIN
p4432
tp4433
tp4434
I1
s((Vis
p4435
VVBZ
p4436
tp4437
Vexpl
p4438
(Vthere
p4439
VEX
p4440
tp4441
tp4442
I1
sg2512
I1
sg1519
I1
sg1524
I1
sg1527
I1
sg1535
I1
sg1543
I1
s((g3768
g3769
tp4443
Vauxpass
p4444
(Vare
p4445
VVBP
p4446
tp4447
tp4448
I2
s(g1670
Vmark
p4449
(Vto
p4450
VTO
p4451
tp4452
tp4453
I1
sg1562
I1
s(g492
Vcase
p4454
(Vof
p4455
VIN
p4456
tp4457
tp4458
I1
s(g3152
Vcase
p4459
(Vthan
p4460
VIN
p4461
tp4462
tp4463
I1
sg1574
I1
sg1579
I2
sg1585
I1
s(g759
Vcase
p4464
(Vof
p4465
VIN
p4466
tp4467
tp4468
I2
sg764
I1
sg1603
I1
sg1606
I1
sg1614
I1
sg2550
I1
sg852
I1
s(g363
Vcase
p4469
(Vduring
p4470
VIN
p4471
tp4472
tp4473
I1
s(g468
Vcase
p4474
(Vof
p4475
VIN
p4476
tp4477
tp4478
I1
sg1628
I1
sg2561
I1
s((Vis
p4479
VVBZ
p4480
tp4481
Vxcomp
p4482
(g62
g63
tp4483
tp4484
I1
sg890
I1
sg2187
I1
sg1642
I1
sg1650
I1
sg1656
I1
s(g484
Vcop
p4485
(Vis
p4486
VVBZ
p4487
tp4488
tp4489
I1
sg1667
I1
sg1675
I1
s(g315
Vnsubj
p4490
(Vthese
p4491
VDT
p4492
tp4493
tp4494
I1
s((g1972
g1973
tp4495
Vcase
p4496
(Vof
p4497
VIN
p4498
tp4499
tp4500
I1
sg1680
I1
s(g1779
Vnsubj
p4501
(Vthey
p4502
VPRP
p4503
tp4504
tp4505
I1
sg1685
I1
sg1690
I1
sg1593
I1
s((g1647
g1648
tp4506
Vadvmod
p4507
(Vmost
p4508
VRBS
p4509
tp4510
tp4511
I1
s(g1500
Vcop
p4512
(Vbe
p4513
VVB
p4514
tp4515
tp4516
I1
s(g1415
Vcase
p4517
(Vwith
p4518
VIN
p4519
tp4520
tp4521
I1
s(g4072
Vcase
p4522
(Vfor
p4523
VIN
p4524
tp4525
tp4526
I1
s(g1933
Vnsubj
p4527
(Vyou
p4528
VPRP
p4529
tp4530
tp4531
I1
s(g428
Vauxpass
p4532
(Vare
p4533
VVBP
p4534
tp4535
tp4536
I1
sg1701
I1
s(g2545
Vnsubj
p4537
(Vthat
p4538
VWDT
p4539
tp4540
tp4541
I1
sg876
I1
sg1710
I1
sg2119
I1
sg1713
I1
sg1718
I1
s(g557
Vmark
p4542
(Vto
p4543
VTO
p4544
tp4545
tp4546
I1
sg1721
I1
sg1727
I1
s((g1233
g1234
tp4547
Vdet
p4548
(Vthe
p4549
VDT
p4550
tp4551
tp4552
I1
sg1733
I1
s(g1546
Vnmod
p4553
(g3642
g3643
tp4554
tp4555
I1
s(g2215
Vcase
p4556
(Vthrough
p4557
VIN
p4558
tp4559
tp4560
I1
sg1566
I1
s(g893
Vxcomp
p4561
(g3562
g3563
tp4562
tp4563
I1
s(g157
Vcop
p4564
(Vare
p4565
VVBP
p4566
tp4567
tp4568
I1
s(g4443
Vxcomp
p4569
(g4342
g4343
tp4570
tp4571
I1
s(g1031
Vnmod:poss
p4572
(Vtheir
p4573
VPRP$
p4574
tp4575
tp4576
I2
sg1738
I1
sg2572
I1
s(g599
Vcase
p4577
(Vin
p4578
VIN
p4579
tp4580
tp4581
I1
sg1742
I1
sg1747
I1
s(g2622
Vdet
p4582
(Veach
p4583
VDT
p4584
tp4585
tp4586
I1
s(g420
Vcase
p4587
(Vwith
p4588
VIN
p4589
tp4590
tp4591
I1
s(g2740
Vcase
p4592
(Vof
p4593
VIN
p4594
tp4595
tp4596
I1
s(g2104
Vnsubj
p4597
(Vit
p4598
VPRP
p4599
tp4600
tp4601
I2
s((Vthese
p4602
VDT
p4603
tp4604
Vcase
p4605
(Vabout
p4606
VIN
p4607
tp4608
tp4609
I1
s(g2786
Vdet
p4610
(Vthe
p4611
VDT
p4612
tp4613
tp4614
I1
sg1765
I1
s(g2796
Vcop
p4615
(Vbeing
p4616
VVBG
p4617
tp4618
tp4619
I1
s(g197
Vmark
p4620
(Vto
p4621
VTO
p4622
tp4623
tp4624
I1
sg61
I1
sg1776
I1
sg1784
I1
s(g4481
Vnsubj
p4625
(Vthat
p4626
VWDT
p4627
tp4628
tp4629
I1
sg1787
I1
sg1792
I1
s((g2754
g2755
tp4630
Vnmod:poss
p4631
(Vtheir
p4632
VPRP$
p4633
tp4634
tp4635
I1
sg1800
I1
s(g667
Vcop
p4636
(Vare
p4637
VVBP
p4638
tp4639
tp4640
I1
s(g1169
Vauxpass
p4641
(Vis
p4642
VVBZ
p4643
tp4644
tp4645
I1
s(g753
Vcop
p4646
(Vare
p4647
VVBP
p4648
tp4649
tp4650
I1
s(g393
Vnsubj
p4651
(Vwho
p4652
VWP
p4653
tp4654
tp4655
I1
sg1808
I1
s(g1387
Vcc
p4656
(Vand
p4657
VCC
p4658
tp4659
tp4660
I1
sg1814
I1
s(g3070
Vdet
p4661
(g3195
VDT
p4662
tp4663
tp4664
I1
sg2999
I1
s(g8
Vnsubj
p4665
(Vthey
p4666
VPRP
p4667
tp4668
tp4669
I1
sg1820
I1
s(g3608
Vdet
p4670
(Vthe
p4671
VDT
p4672
tp4673
tp4674
I1
sg1823
I1
s(g2921
Vdet
p4675
(Vthe
p4676
VDT
p4677
tp4678
tp4679
I2
s(g157
Vmark
p4680
(Vthat
p4681
VIN
p4682
tp4683
tp4684
I1
s((g2050
g2051
tp4685
Vcase
p4686
(Vover
p4687
VIN
p4688
tp4689
tp4690
I1
s(g1811
Vcase
p4691
(Vwith
p4692
VIN
p4693
tp4694
tp4695
I1
sg1833
I1
s(g3175
Vdet
p4696
(Vthe
p4697
VDT
p4698
tp4699
tp4700
I1
s(g1768
Vauxpass
p4701
(Vwere
p4702
VVBD
p4703
tp4704
tp4705
I1
sg1841
I1
s(g3127
Vdet
p4706
(g3195
VDT
p4707
tp4708
tp4709
I1
s(g117
Vcop
p4710
(Vbe
p4711
VVB
p4712
tp4713
tp4714
I1
s(g516
Vdobj
p4715
(Vit
p4716
VPRP
p4717
tp4718
tp4719
I1
s(g3391
Vdet
p4720
(Vthat
p4721
VDT
p4722
tp4723
tp4724
I1
s(g2365
Vnsubj
p4725
(Vyou
p4726
VPRP
p4727
tp4728
tp4729
I1
sg1505
I1
sg2597
I1
s(g2090
Vnsubj
p4730
(Vthey
p4731
VPRP
p4732
tp4733
tp4734
I1
s(g1830
Vauxpass
p4735
(Vbe
p4736
VVB
p4737
tp4738
tp4739
I1
sg1870
I1
s(g4547
Vcase
p4740
(Vto
p4741
VTO
p4742
tp4743
tp4744
I1
sg1878
I1
s(g1231
Vadvmod
p4745
(Vvery
p4746
VRB
p4747
tp4748
tp4749
I1
s(g331
Vcase
p4750
(Vof
p4751
VIN
p4752
tp4753
tp4754
I1
sg1882
I1
sg2605
I1
s(g2274
Vcase
p4755
(Vof
p4756
VIN
p4757
tp4758
tp4759
I1
s(g772
Vnsubj
p4760
(Vthat
p4761
VWDT
p4762
tp4763
tp4764
I1
sg1890
I1
sg1896
I1
s(g2485
Vcase
p4765
(Von
p4766
VIN
p4767
tp4768
tp4769
I1
s(g719
Vaux
p4770
(Vbe
p4771
VVB
p4772
tp4773
tp4774
I1
s(g286
Vaux
p4775
(Vis
p4776
VVBZ
p4777
tp4778
tp4779
I1
sg1902
I1
sg1910
I1
s(g2176
Vcase
p4780
(Vto
p4781
VTO
p4782
tp4783
tp4784
I1
sg1916
I1
sg1924
I1
sg3002
I1
sg1930
I1
sg1938
I2
s(g56
Vcase
p4785
(Vof
p4786
VIN
p4787
tp4788
tp4789
I1
s(g2244
Vadvmod
p4790
(Vbelow
p4791
VRB
p4792
tp4793
tp4794
I1
s((Vhave
p4795
VVBP
p4796
tp4797
Vdobj
p4798
(g2628
g2629
tp4799
tp4800
I1
s(g2740
Vdet
p4801
(Vthe
p4802
VDT
p4803
tp4804
tp4805
I1
s(g4630
Vamod
p4806
(Vown
p4807
VJJ
p4808
tp4809
tp4810
I1
sg1955
I1
sg1960
I1
sg1966
I1
s(g1169
Vnmod
p4811
(g4602
g4603
tp4812
tp4813
I1
s(g2280
Vnsubj
p4814
(g3468
VFW
p4815
tp4816
tp4817
I1
s(g1582
Vdet
p4818
(Vthe
p4819
VDT
p4820
tp4821
tp4822
I2
s(g2518
Vdobj
p4823
(Vmore
p4824
VJJR
p4825
tp4826
tp4827
I1
sg1975
I1
sg1980
I1
sg1985
I1
s(g1588
Vcase
p4828
(Vas
p4829
VIN
p4830
tp4831
tp4832
I1
s(g1704
Vnsubj
p4833
(Vthese
p4834
VDT
p4835
tp4836
tp4837
I2
s((g601
g602
tp4838
Vcase
p4839
(Vof
p4840
VIN
p4841
tp4842
tp4843
I1
sg1990
I1
s(g2061
Vmark
p4844
(Vto
p4845
VTO
p4846
tp4847
tp4848
I1
sg1996
I1
sg2002
I1
s(g484
Vcc
p4849
(Vand
p4850
VCC
p4851
tp4852
tp4853
I1
sg2007
I1
s(g1795
Vnmod
p4854
(Vme
p4855
VPRP
p4856
tp4857
tp4858
I1
s(g2906
Vcase
p4859
(Vto
p4860
VTO
p4861
tp4862
tp4863
I1
s(g1330
Vcase
p4864
(Vfrom
p4865
VIN
p4866
tp4867
tp4868
I1
s(g452
Vamod
p4869
(Vonly
p4870
VJJ
p4871
tp4872
tp4873
I1
s(g1609
Vnsubj
p4874
(Vthey
p4875
VPRP
p4876
tp4877
tp4878
I1
s(g1855
Vcop
p4879
(Vis
p4880
VVBZ
p4881
tp4882
tp4883
I1
sg2022
I1
sg2027
I1
sg1510
I1
sg2033
I1
s(g48
Vauxpass
p4884
(Vare
p4885
VVBP
p4886
tp4887
tp4888
I1
s(g1768
Vcc
p4889
(Vand
p4890
VCC
p4891
tp4892
tp4893
I1
sg106
I1
sg2039
I1
s(g2796
Vcase
p4894
(Vof
p4895
VIN
p4896
tp4897
tp4898
I1
s(g460
Vcop
p4899
(Vare
p4900
VVBP
p4901
tp4902
tp4903
I1
sg943
I1
s(g379
Vcop
p4904
(Vare
p4905
VVBP
p4906
tp4907
tp4908
I1
s(g2622
Vcase
p4909
(Vwith
p4910
VIN
p4911
tp4912
tp4913
I1
sg2042
I1
sg3017
I1
sg2047
I1
s(g1282
Vnsubj
p4914
(Vthey
p4915
VPRP
p4916
tp4917
tp4918
I1
sg2053
I1
sg2058
I1
sg949
I1
s(g3801
Vnmod
p4919
(g3307
g3308
tp4920
tp4921
I1
sg2064
I1
s(g1795
Vmark
p4922
(Vto
p4923
VTO
p4924
tp4925
tp4926
I1
sg2072
I1
s(g484
Vadvmod
p4927
(Vmore
p4928
VRBR
p4929
tp4930
tp4931
I1
s(g205
Vcase
p4932
(Vby
p4933
VIN
p4934
tp4935
tp4936
I1
sg2085
I1
sg2089
I1
sg3027
I1
sg2095
I1
s(g692
Vdet
p4937
(g3195
VDT
p4938
tp4939
tp4940
I1
sg2101
I1
sg2107
I1
sg2113
I1
s((g4855
g4856
tp4941
Vcase
p4942
(Vwith
p4943
VIN
p4944
tp4945
tp4946
I1
s(g4437
Vnsubj
p4947
(g1431
g1432
tp4948
tp4949
I1
s(g911
Vcase
p4950
(Vof
p4951
VIN
p4952
tp4953
tp4954
I1
s(g1324
Vdet
p4955
(Vany
p4956
VDT
p4957
tp4958
tp4959
I1
s(g803
Vnmod:poss
p4960
(Vtheir
p4961
VPRP$
p4962
tp4963
tp4964
I1
sg2141
I1
s(g1212
Vamod
p4965
(Vother
p4966
VJJ
p4967
tp4968
tp4969
I1
sg2144
I1
sg1866
I1
sg2152
I1
s(g3750
Vnsubj
p4970
(Vthey
p4971
VPRP
p4972
tp4973
tp4974
I1
s(g157
Vcc
p4975
(Vand
p4976
VCC
p4977
tp4978
tp4979
I1
sg2163
I1
sg2171
I1
sg2175
I1
s(g1144
Vdet
p4980
(g3195
VDT
p4981
tp4982
tp4983
I1
sg2930
I1
s(g4090
Vcase
p4984
(Vof
p4985
VIN
p4986
tp4987
tp4988
I1
s((g1735
g1736
tp4989
Vcase
p4990
(Vwith
p4991
VIN
p4992
tp4993
tp4994
I2
s(g48
Vmark
p4995
(Vfor
p4996
VIN
p4997
tp4998
tp4999
I1
sg2181
I1
s(g3214
Vmark
p5000
(Vto
p5001
VTO
p5002
tp5003
tp5004
I1
s(g1824
Vdet
p5005
(Vthe
p5006
VDT
p5007
tp5008
tp5009
I1
s(g3652
Vexpl
p5010
(Vthere
p5011
VEX
p5012
tp5013
tp5014
I1
s(g117
Vmark
p5015
(Vto
p5016
VTO
p5017
tp5018
tp5019
I1
s(g3972
Vcase
p5020
(Vfrom
p5021
VIN
p5022
tp5023
tp5024
I1
s(g133
Vexpl
p5025
(Vthere
p5026
VEX
p5027
tp5028
tp5029
I1
sg2193
I1
sg2198
I2
s(g2333
Vcase
p5030
(Vin
p5031
VIN
p5032
tp5033
tp5034
I1
sg2203
I1
s(g3966
Vdobj
p5035
(g1939
g1940
tp5036
tp5037
I1
s(g2583
Vnmod:poss
p5038
(Vtheir
p5039
VPRP$
p5040
tp5041
tp5042
I1
sg1551
I1
sg2212
I1
s(g1500
Vnmod:poss
p5043
(Vtheir
p5044
VPRP$
p5045
tp5046
tp5047
I1
s(g1351
Vdet
p5048
(Vthe
p5049
VDT
p5050
tp5051
tp5052
I1
s(g1952
Vcc
p5053
(Vand
p5054
VCC
p5055
tp5056
tp5057
I1
s(g4147
Vdet
p5058
(Vthe
p5059
VDT
p5060
tp5061
tp5062
I1
sg2224
I1
s(g72
Vdet
p5063
(g3195
VDT
p5064
tp5065
tp5066
I1
s(g88
Vcase
p5067
(Vfor
p5068
VIN
p5069
tp5070
tp5071
I1
s(g605
Vdep
p5072
(Vnot
p5073
VRB
p5074
tp5075
tp5076
I1
sg2229
I1
sg3054
I1
sg3042
I1
sg2240
I1
sg2243
I1
s(g2128
Vmark
p5077
(Vif
p5078
VIN
p5079
tp5080
tp5081
I1
sg384
I1
sg2249
I1
sg2257
I1
s((g960
g961
tp5082
Vdet
p5083
(Vthe
p5084
VDT
p5085
tp5086
tp5087
I1
sg2265
I1
sg2271
I1
sg2279
I1
sg2283
I1
s(g1629
Vmark
p5088
(Vthat
p5089
VIN
p5090
tp5091
tp5092
I1
sg2286
I1
s(g2927
Vauxpass
p5093
(Vbeen
p5094
VVBN
p5095
tp5096
tp5097
I1
s((g3010
g3011
tp5098
Vcase
p5099
(Vof
p5100
VIN
p5101
tp5102
tp5103
I1
s(g1739
Vaux
p5104
(Vhave
p5105
VVBP
p5106
tp5107
tp5108
I1
s((g1244
g1245
tp5109
Vcase
p5110
(Vfor
p5111
VIN
p5112
tp5113
tp5114
I1
s(g436
Vmark
p5115
(Vto
p5116
VTO
p5117
tp5118
tp5119
I1
s(g238
Vcop
p5120
(Vis
p5121
VVBZ
p5122
tp5123
tp5124
I1
sg1755
I1
s(g3425
Vccomp
p5125
(g385
g386
tp5126
tp5127
I1
sg2293
I1
sg2298
I4
sg3118
I1
s(g2266
Vmark
p5128
(Vto
p5129
VTO
p5130
tp5131
tp5132
I1
sg2301
I1
sg2306
I1
s(g1433
Vacl:relcl
p5133
(g4479
g4480
tp5134
tp5135
I1
sg2309
I1
sg2314
I1
s(g711
Vauxpass
p5136
(Vbeen
p5137
VVBN
p5138
tp5139
tp5140
I1
sg2320
I1
s(g1274
Vcc
p5141
(Vor
p5142
VCC
p5143
tp5144
tp5145
I1
sg1022
I1
s((g2437
g2438
tp5146
Vdet
p5147
(Vthis
p5148
VDT
p5149
tp5150
tp5151
I1
s(g355
Vnsubj
p5152
(Vthey
p5153
VPRP
p5154
tp5155
tp5156
I1
s(g2209
Vmark
p5157
(Vto
p5158
VTO
p5159
tp5160
tp5161
I2
sg2330
I1
sg2338
I1
sg2341
I1
s(g3487
Vdet
p5162
(Vthis
p5163
VDT
p5164
tp5165
tp5166
I3
s(g1082
Vadvmod
p5167
(Vso
p5168
VRB
p5169
tp5170
tp5171
I1
sg656
I1
sg672
I1
sg2364
I1
sg2353
I3
s(g3014
Vnsubj
p5172
(Vthis
p5173
VDT
p5174
tp5175
tp5176
I1
s(g3495
Vadvcl
p5177
(g434
g435
tp5178
tp5179
I1
s(g635
Vdet
p5180
(Vthis
p5181
VDT
p5182
tp5183
tp5184
I1
sg2373
I1
sg2376
I1
sg2382
I1
sg2388
I1
s(g692
Vcop
p5185
(Vbe
p5186
VVB
p5187
tp5188
tp5189
I1
sg1556
I1
s(g2034
Vdobj
p5190
(Vit
p5191
VPRP
p5192
tp5193
tp5194
I1
sg2399
I1
sg2404
I1
sg2368
I1
sg2411
I1
sg2419
I1
s(g181
Vcc
p5195
(Vand
p5196
VCC
p5197
tp5198
tp5199
I1
s((g2594
g2595
tp5200
Vdet
p5201
(Vthe
p5202
VDT
p5203
tp5204
tp5205
I1
sg2425
I1
sg2429
I1
s((g580
g581
tp5206
Vnmod:poss
p5207
(Vtheir
p5208
VPRP$
p5209
tp5210
tp5211
I1
sg2814
I1
sg2125
I1
sg2440
I1
sg2443
I1
sg2448
I1
s(g703
Vnsubjpass
p5212
(Vthey
p5213
VPRP
p5214
tp5215
tp5216
I1
s(g1098
Vnsubj
p5217
(Vit
p5218
VPRP
p5219
tp5220
tp5221
I1
sg2454
I1
sg2462
I1
sg2467
I2
s(g2668
Vcase
p5222
(Vfrom
p5223
VIN
p5224
tp5225
tp5226
I1
s(g189
Vadvmod
p5227
(Vjust
p5228
VRB
p5229
tp5230
tp5231
I1
sg2479
I1
sg1263
I1
s(g246
Vdet
p5232
(Vthe
p5233
VDT
p5234
tp5235
tp5236
I1
s(g2034
Vaux
p5237
(Vdo
p5238
VVBP
p5239
tp5240
tp5241
I1
s((g2676
g2677
tp5242
Vcase
p5243
(Vby
p5244
VIN
p5245
tp5246
tp5247
I1
s(g2786
Vcase
p5248
(Vin
p5249
VIN
p5250
tp5251
tp5252
I1
s(g1836
Vauxpass
p5253
(Vwas
p5254
VVBD
p5255
tp5256
tp5257
I1
sg2493
I1
s(g460
Vnsubj
p5258
(Vthey
p5259
VPRP
p5260
tp5261
tp5262
I1
sg2498
I1
sg2506
I1
s((g2749
g2750
tp5263
Vcase
p5264
(Vof
p5265
VIN
p5266
tp5267
tp5268
I2
s(g1609
Vcc
p5269
(Vand
p5270
VCC
p5271
tp5272
tp5273
I1
sg2515
I1
s(g2649
Vnsubj
p5274
(Vthey
p5275
VPRP
p5276
tp5277
tp5278
I1
s(g492
Vdet
p5279
(g3195
VDT
p5280
tp5281
tp5282
I1
s(g401
Vdet
p5283
(Vthe
p5284
VDT
p5285
tp5286
tp5287
I1
sg2529
I1
sg2534
I1
s(g2501
Vcase
p5288
(Vin
p5289
VIN
p5290
tp5291
tp5292
I1
sg2537
I1
s(g1563
Vcc
p5293
(Vand
p5294
VCC
p5295
tp5296
tp5297
I1
sg2542
I1
s(g1212
Vcase
p5298
(Vof
p5299
VIN
p5300
tp5301
tp5302
I1
s(g2365
Vmark
p5303
(Vif
p5304
VIN
p5305
tp5306
tp5307
I1
sg2555
I1
sg1634
I1
s(g911
Vdet
p5308
(Vthe
p5309
VDT
p5310
tp5311
tp5312
I1
s((g2445
g2446
tp5313
Vdet
p5314
(Vthese
p5315
VDT
p5316
tp5317
tp5318
I2
sg425
I1
sg2566
I1
s(g2583
Vcase
p5319
(Vin
p5320
VIN
p5321
tp5322
tp5323
I1
sg304
I1
s((g1298
g1299
tp5324
Vmark
p5325
(Vto
p5326
VTO
p5327
tp5328
tp5329
I1
s(g1844
Vdet
p5330
(Vsome
p5331
VDT
p5332
tp5333
tp5334
I1
sg2577
I1
sg2582
I1
sg2586
I1
sg2591
I1
s(g1637
Vnsubj
p5335
(Vthey
p5336
VPRP
p5337
tp5338
tp5339
I2
s(g2274
Vamod
p5340
(Vsame
p5341
VJJ
p5342
tp5343
tp5344
I1
sg2608
I1
s((g2355
g2356
tp5345
Vadvmod
p5346
(Vas
p5347
VRB
p5348
tp5349
tp5350
I1
s((g3599
g3600
tp5351
Vdet
p5352
(g3195
VDT
p5353
tp5354
tp5355
I1
sg2157
I1
sg3069
I1
sg2614
I1
sg2619
I1
s(g1118
Vmark
p5356
(Vto
p5357
VTO
p5358
tp5359
tp5360
I1
s(g711
Vcc
p5361
(Vand
p5362
VCC
p5363
tp5364
tp5365
I1
sg927
I1
sg2627
I1
sg2633
I1
s(g2274
Vdet
p5366
(Vthe
p5367
VDT
p5368
tp5369
tp5370
I2
s((g3072
g3073
tp5371
Vcase
p5372
(Vof
p5373
VIN
p5374
tp5375
tp5376
I1
s(g2274
Vcop
p5377
(Vare
p5378
VVBP
p5379
tp5380
tp5381
I2
sg2641
I2
sg2646
I2
sg2654
I1
s(g667
Vdet
p5382
(g3195
VDT
p5383
tp5384
tp5385
I1
s((g857
g858
tp5386
Vcase
p5387
(Vof
p5388
VIN
p5389
tp5390
tp5391
I1
sg2659
I1
sg2662
I1
sg2667
I1
sg457
I1
sg2673
I1
s(g2880
Vnsubj
p5392
(Vthese
p5393
VDT
p5394
tp5395
tp5396
I1
sg2679
I1
s(g1484
Vcc
p5397
(Vand
p5398
VCC
p5399
tp5400
tp5401
I1
s(g1513
Vaux
p5402
(Vhad
p5403
VVBD
p5404
tp5405
tp5406
I1
sg2685
I1
s(g1582
Vcase
p5407
(Vwith
p5408
VIN
p5409
tp5410
tp5411
I1
sg2690
I1
sg2957
I1
s(g2232
Vnsubj
p5412
(g3468
VFW
p5413
tp5414
tp5415
I1
sg2695
I1
s(g2915
Vcase
p5416
(Vin
p5417
VIN
p5418
tp5419
tp5420
I1
s(g3349
Vcase
p5421
(Vof
p5422
VIN
p5423
tp5424
tp5425
I2
sg2698
I1
sg2706
I1
sg2710
I1
s(g2817
Vnsubj
p5426
(g3468
VFW
p5427
tp5428
tp5429
I1
s(g627
Vnsubj
p5430
(Vthey
p5431
VPRP
p5432
tp5433
tp5434
I1
s(g1447
Vnsubj
p5435
(Vthey
p5436
VPRP
p5437
tp5438
tp5439
I1
sg2716
I1
s(g2377
Vdet
p5440
(Vthe
p5441
VDT
p5442
tp5443
tp5444
I1
s(g460
Vcase
p5445
(Vfrom
p5446
VIN
p5447
tp5448
tp5449
I1
sg2721
I1
s((g1361
g1362
tp5450
Vcase
p5451
(Vfrom
p5452
VIN
p5453
tp5454
tp5455
I1
sg2724
I1
sg2727
I1
s(g1258
Vcase
p5456
(Vas
p5457
VIN
p5458
tp5459
tp5460
I1
sg1970
I1
s(g2405
Vadvmod
p5461
(Vjust
p5462
VRB
p5463
tp5464
tp5465
I1
s(g1768
Vmark
p5466
(Vwith
p5467
VIN
p5468
tp5469
tp5470
I1
s(g2426
Vmark
p5471
(Vto
p5472
VTO
p5473
tp5474
tp5475
I1
s((g3132
g3133
tp5476
Vamod
p5477
(Vother
p5478
VJJ
p5479
tp5480
tp5481
I1
sg2733
I1
s(g1855
Vamod
p5482
(Vmore
p5483
VJJR
p5484
tp5485
tp5486
I1
s(g3127
Vcase
p5487
(Vwith
p5488
VIN
p5489
tp5490
tp5491
I1
s(g323
Vcase
p5492
(Vof
p5493
VIN
p5494
tp5495
tp5496
I1
s(g3564
Vnmod
p5497
(g801
g802
tp5498
tp5499
I1
sg1852
I1
sg2743
I1
sg2730
I1
s((g1112
g1113
tp5500
Vcase
p5501
(Vto
p5502
VTO
p5503
tp5504
tp5505
I7
sg2746
I1
sg2752
I1
sg2757
I1
sg2760
I1
sg2763
I1
sg2769
I1
s(g1318
Vdet
p5506
(Vthe
p5507
VDT
p5508
tp5509
tp5510
I1
sg2777
I1
s(g1023
Vdet
p5511
(Vthe
p5512
VDT
p5513
tp5514
tp5515
I1
s(g3109
Vcase
p5516
(Voff
p5517
VIN
p5518
tp5519
tp5520
I1
s(g522
Vdep
p5521
(g3195
VDT
p5522
tp5523
tp5524
I3
sg2780
I1
sg2785
I1
s(g5200
Vcase
p5525
(Vas
p5526
VIN
p5527
tp5528
tp5529
I1
sg2789
I1
s(g1401
Vconj
p5530
(g3964
g3965
tp5531
tp5532
I1
sg2795
I1
s(g1651
Vamod
p5533
(Vother
p5534
VJJ
p5535
tp5536
tp5537
I1
s(g2182
Vdet
p5538
(Vthe
p5539
VDT
p5540
tp5541
tp5542
I1
s(g1651
Vcase
p5543
(Vto
p5544
VTO
p5545
tp5546
tp5547
I1
sg2799
I1
s((g1381
g1382
tp5548
Vcase
p5549
(Vof
p5550
VIN
p5551
tp5552
tp5553
I1
s(g4797
Vadvmod
p5554
(Valso
p5555
VRB
p5556
tp5557
tp5558
I1
s(g1433
Vcc
p5559
(Vor
p5560
VCC
p5561
tp5562
tp5563
I1
s(g1220
Vnsubj
p5564
(Vwhich
p5565
VWDT
p5566
tp5567
tp5568
I1
s(g40
Vnsubj
p5569
(g3468
VFW
p5570
tp5571
tp5572
I1
sg2825
I1
sg2828
I1
s((g50
g51
tp5573
Vdet
p5574
(Vthis
p5575
VDT
p5576
tp5577
tp5578
I1
s(g998
Vnsubj
p5579
(Vthey
p5580
VPRP
p5581
tp5582
tp5583
I1
sg224
I1
s(g2927
Vaux
p5584
(Vhave
p5585
VVBP
p5586
tp5587
tp5588
I1
sg1949
I1
s(g2260
Vauxpass
p5589
(Vare
p5590
VVBP
p5591
tp5592
tp5593
I1
s(g1538
Vadvmod
p5594
(Vso
p5595
VRB
p5596
tp5597
tp5598
I1
sg2834
I1
s(g1157
Vmark
p5599
(Vto
p5600
VTO
p5601
tp5602
tp5603
I1
sg2842
I1
s((g1171
g1172
tp5604
Vadvmod
p5605
(Vvery
p5606
VRB
p5607
tp5608
tp5609
I1
s(g3966
Vdobj
p5610
(g450
g451
tp5611
tp5612
I1
sg2739
I1
s(g468
Vdet
p5613
(Vthe
p5614
VDT
p5615
tp5616
tp5617
I1
sg2847
I1
s(g2518
Vmark
p5618
(Vto
p5619
VTO
p5620
tp5621
tp5622
I1
s(g790
Vcase
p5623
(Vwith
p5624
VIN
p5625
tp5626
tp5627
I1
sg2852
I1
sg916
I1
s((g3056
g3057
tp5628
Vnmod:poss
p5629
(Vtheir
p5630
VPRP$
p5631
tp5632
tp5633
I1
s(g32
Vdet
p5634
(g3195
VDT
p5635
tp5636
tp5637
I1
sg2857
I1
s(g355
Vcop
p5638
(Vare
p5639
VVBP
p5640
tp5641
tp5642
I1
s((g2012
g2013
tp5643
Vcase
p5644
(Vof
p5645
VIN
p5646
tp5647
tp5648
I1
s(g3766
Vdobj
p5649
(g1029
g1030
tp5650
tp5651
I1
sg2862
I1
s(g711
Vaux
p5652
(Vhave
p5653
VVBP
p5654
tp5655
tp5656
I1
s(g811
Vcc
p5657
(Vand
p5658
VCC
p5659
tp5660
tp5661
I1
s((g1921
g1922
tp5662
Vcase
p5663
(Vof
p5664
VIN
p5665
tp5666
tp5667
I1
sg1193
I1
sg2866
I1
sg2869
I1
s(g3766
Vnsubj
p5668
(Vgreys
p5669
VNNS
p5670
tp5671
tp5672
I2
sg640
I1
sg2874
I1
s(g1401
Vcop
p5673
(Vis
p5674
VVBZ
p5675
tp5676
tp5677
I1
s(g2422
Vnsubj
p5678
(g3468
VFW
p5679
tp5680
tp5681
I1
s(g1500
Vmark
p5682
(Vto
p5683
VTO
p5684
tp5685
tp5686
I1
s(g2509
Vnsubj
p5687
(Vthese
p5688
VDT
p5689
tp5690
tp5691
I1
sg2885
I1
sg2890
I1
sg2895
I1
sg2900
I2
sg2903
I1
s(g2501
Vcc
p5692
(Vand
p5693
VCC
p5694
tp5695
tp5696
I1
s(g4838
Vnmod:poss
p5697
(Vtheir
p5698
VPRP$
p5699
tp5700
tp5701
I1
sg1131
I1
s(g3766
Vcc
p5702
(Vbut
p5703
VCC
p5704
tp5705
tp5706
I1
s(g1393
Vmark
p5707
(Vto
p5708
VTO
p5709
tp5710
tp5711
I1
s(g2802
Vnsubj
p5712
(Vthey
p5713
VPRP
p5714
tp5715
tp5716
I1
s(g1739
Vnsubj
p5717
(Vthat
p5718
VWDT
p5719
tp5720
tp5721
I1
sg2909
I1
s((g2736
g2737
tp5722
Vadvmod
p5723
(Vmore
p5724
VRBR
p5725
tp5726
tp5727
I1
sg2912
I1
s(g3175
Vcop
p5728
(Vare
p5729
VVBP
p5730
tp5731
tp5732
I1
s(g4437
Vadvmod
p5733
(Vsupposedly
p5734
VRB
p5735
tp5736
tp5737
I1
s(g1885
Vneg
p5738
(Vno
p5739
VDT
p5740
tp5741
tp5742
I1
sg2920
I1
sg2926
I1
s(g1296
Vnsubj
p5743
(Vthey
p5744
VPRP
p5745
tp5746
tp5747
I1
s(g1952
Vnsubj
p5748
(Vthat
p5749
VWDT
p5750
tp5751
tp5752
I1
sg1418
I1
s(g2734
Vdet
p5753
(Vthe
p5754
VDT
p5755
tp5756
tp5757
I1
sg2938
I1
sg2944
I1
s(g1343
Vauxpass
p5758
(Vare
p5759
VVBP
p5760
tp5761
tp5762
I1
sg2949
I1
sg2954
I1
s(g643
Vmark
p5763
(Vto
p5764
VTO
p5765
tp5766
tp5767
I1
sg2962
I1
s(g315
Vcop
p5768
(Vare
p5769
VVBP
p5770
tp5771
tp5772
I1
s(g1023
Vmark
p5773
(Vto
p5774
VTO
p5775
tp5776
tp5777
I1
s(g189
Vadvmod
p5778
(Vas
p5779
VRB
p5780
tp5781
tp5782
I1
sg2970
I1
sg2976
I1
sg2981
I1
s(g3008
Vdet
p5783
(g3195
VDT
p5784
tp5785
tp5786
I1
sg2774
I1
sg2218
I1
s(g3678
Vdet
p5787
(Vthe
p5788
VDT
p5789
tp5790
tp5791
I2
sg2986
I1
sg2991
I1
s(g5146
Vcase
p5792
(Vof
p5793
VIN
p5794
tp5795
tp5796
I1
s(g428
Vnsubjpass
p5797
(Vwho
p5798
VWP
p5799
tp5800
tp5801
I1
sg2994
I1
s(g1061
Vnsubj
p5802
(Vthey
p5803
VPRP
p5804
tp5805
tp5806
I1
s(g2747
Vadvmod
p5807
(Vas
p5808
VRB
p5809
tp5810
tp5811
I1
sg3007
I1
s(g4344
Vmark
p5812
(Vto
p5813
VTO
p5814
tp5815
tp5816
I2
s(g387
Vnsubj
p5817
(g3468
VFW
p5818
tp5819
tp5820
I1
sg3013
I1
s(g2707
Vcc
p5821
(Vor
p5822
VCC
p5823
tp5824
tp5825
I1
s(g1053
Vcop
p5826
(Vbe
p5827
VVB
p5828
tp5829
tp5830
I1
s(g1609
Vmark
p5831
(Vthat
p5832
VIN
p5833
tp5834
tp5835
I1
s(g3644
Vcase
p5836
(Vwith
p5837
VIN
p5838
tp5839
tp5840
I1
sg3022
I1
s(g1779
Vcc
p5841
(Vand
p5842
VCC
p5843
tp5844
tp5845
I1
s(g230
Vmark
p5846
(Vby
p5847
VIN
p5848
tp5849
tp5850
I1
s(g387
Vdobj
p5851
(Vwhat
p5852
VWP
p5853
tp5854
tp5855
I1
sg3032
I1
s(g1513
Vnsubj
p5856
(Vthey
p5857
VPRP
p5858
tp5859
tp5860
I1
sg3037
I1
s(g627
Vcop
p5861
(Vare
p5862
VVBP
p5863
tp5864
tp5865
I1
s(g887
Vdet
p5866
(Vthe
p5867
VDT
p5868
tp5869
tp5870
I1
s(g2435
Vdet
p5871
(Vthe
p5872
VDT
p5873
tp5874
tp5875
I1
s((g2897
g2898
tp5876
Vcase
p5877
(Vas
p5878
VIN
p5879
tp5880
tp5881
I2
sg3045
I1
s(g1891
Vcop
p5882
(Vbeing
p5883
VVBG
p5884
tp5885
tp5886
I1
s(g725
Vaux
p5887
(Vdo
p5888
VVBP
p5889
tp5890
tp5891
I1
sg3050
I1
s(g3014
Vcop
p5892
(Vis
p5893
VVBZ
p5894
tp5895
tp5896
I1
sg2235
I1
s(g1182
Vcop
p5897
(Vare
p5898
VVBP
p5899
tp5900
tp5901
I1
s(g966
Vmark
p5902
(Vthan
p5903
VIN
p5904
tp5905
tp5906
I1
s(g1941
Vdet
p5907
(g3195
VDT
p5908
tp5909
tp5910
I1
s((g1055
g1056
tp5911
Vcase
p5912
(Vthan
p5913
VIN
p5914
tp5915
tp5916
I1
sg3059
I1
sg2133
I1
sg3063
I1
s(g5109
Vnmod:poss
p5917
(Vtheir
p5918
VPRP$
p5919
tp5920
tp5921
I1
sg3066
I1
s(g1387
Vnsubj
p5922
(Vthey
p5923
VPRP
p5924
tp5925
tp5926
I1
s(g1231
Vcop
p5927
(Vare
p5928
VVBP
p5929
tp5930
tp5931
I1
s(g331
Vdet
p5932
(Vthe
p5933
VDT
p5934
tp5935
tp5936
I1
s(g1188
Vdet
p5937
(Vsome
p5938
VDT
p5939
tp5940
tp5941
I1
sg3075
I1
s(g2766
Vexpl
p5942
(Vthere
p5943
VEX
p5944
tp5945
tp5946
I1
sg3078
I1
s(g2509
Vcase
p5947
(Vfrom
p5948
VIN
p5949
tp5950
tp5951
I1
s(g1704
Vcop
p5952
(Vare
p5953
VVBP
p5954
tp5955
tp5956
I2
s(g1891
Vmark
p5957
(Vas
p5958
VIN
p5959
tp5960
tp5961
I1
sg1050
I1
s(g8
Vcc
p5962
(Vand
p5963
VCC
p5964
tp5965
tp5966
I1
sg3168
I1
sg3089
I1
s(g2120
Vdep
p5967
(Vto
p5968
VTO
p5969
tp5970
tp5971
I1
sg3094
I1
s(g3652
Vnmod
p5972
(g3347
g3348
tp5973
tp5974
I1
sg3098
I1
s(g2414
Vcop
p5975
(Vbe
p5976
VVB
p5977
tp5978
tp5979
I1
sg3103
I1
sg3108
I1
sg3114
I1
s(g530
Vdobj
p5980
(Vit
p5981
VPRP
p5982
tp5983
tp5984
I1
s(g1873
Vdet
p5985
(Vthe
p5986
VDT
p5987
tp5988
tp5989
I2
s(g1330
Vdet
p5990
(g3195
VDT
p5991
tp5992
tp5993
I1
sg2394
I1
sg3121
I1
sg3126
I1
sg3130
I1
s(g1212
Vcc
p5994
(Vand
p5995
VCC
p5996
tp5997
tp5998
I1
sg3135
I1
s(g966
Vauxpass
p5999
(Vbeing
p6000
VVBG
p6001
tp6002
tp6003
I1
sg3140
I2
s(g1925
Vnsubj
p6004
(Vthat
p6005
VWDT
p6006
tp6007
tp6008
I1
sg3143
I1
sg3148
I1
sg3151
I1
sg3155
I1
sg3158
I1
sg3161
I1
s(g1045
Vmark
p6009
(Vto
p6010
VTO
p6011
tp6012
tp6013
I1
sg3164
I1
s(g1933
Vdobj
p6014
(g4185
g4186
tp6015
tp6016
I1
sg3174
I1
sg3180
I1
sg716
I1
sg2805
I1
sg3183
I1
sg3186
I1
sssS'total'
p6017
(dp6018
g4
I558
sg3187
I1181
ssS'stop'
p6019
(lp6020
g3468
aVme
p6021
aVmy
p6022
aVmyself
p6023
aVwe
p6024
aVour
p6025
aVours
p6026
aVourselves
p6027
aVyou
p6028
aVyour
p6029
aVyours
p6030
aVyourself
p6031
aVyourselves
p6032
aVhe
p6033
aVhim
p6034
aVhis
p6035
aVhimself
p6036
aVshe
p6037
aVher
p6038
aVhers
p6039
aVherself
p6040
aVit
p6041
aVits
p6042
aVitself
p6043
aVthey
p6044
aVthem
p6045
aVtheir
p6046
aVtheirs
p6047
aVthemselves
p6048
aVwhat
p6049
aVwhich
p6050
aVwho
p6051
aVwhom
p6052
aVthis
p6053
aVthat
p6054
aVthese
p6055
aVthose
p6056
aVam
p6057
aVis
p6058
aVare
p6059
aVwas
p6060
aVwere
p6061
aVbe
p6062
aVbeen
p6063
aVbeing
p6064
aVhave
p6065
aVhas
p6066
aVhad
p6067
aVhaving
p6068
aVdo
p6069
aVdoes
p6070
aVdid
p6071
aVdoing
p6072
ag3195
aVan
p6073
aVthe
p6074
aVand
p6075
aVbut
p6076
aVif
p6077
aVor
p6078
aVbecause
p6079
aVas
p6080
aVuntil
p6081
aVwhile
p6082
aVof
p6083
aVat
p6084
aVby
p6085
aVfor
p6086
aVwith
p6087
aVabout
p6088
aVagainst
p6089
aVbetween
p6090
aVinto
p6091
aVthrough
p6092
aVduring
p6093
aVbefore
p6094
aVafter
p6095
aVabove
p6096
aVbelow
p6097
aVto
p6098
aVfrom
p6099
aVup
p6100
aVdown
p6101
aVin
p6102
aVout
p6103
aVon
p6104
aVoff
p6105
aVover
p6106
aVunder
p6107
aVagain
p6108
aVfurther
p6109
aVthen
p6110
aVonce
p6111
aVhere
p6112
aVthere
p6113
aVwhen
p6114
aVwhere
p6115
aVwhy
p6116
aVhow
p6117
aVall
p6118
aVany
p6119
aVboth
p6120
aVeach
p6121
aVfew
p6122
aVmore
p6123
aVmost
p6124
aVother
p6125
aVsome
p6126
aVsuch
p6127
aVno
p6128
aVnor
p6129
aVnot
p6130
aVonly
p6131
aVown
p6132
aVsame
p6133
aVso
p6134
aVthan
p6135
aVtoo
p6136
aVvery
p6137
aVs
p6138
aVt
p6139
aVcan
p6140
aVwill
p6141
aVjust
p6142
aVdon
p6143
aVshould
p6144
aVnow
p6145
aVd
p6146
aVll
p6147
aVm
p6148
aVo
p6149
aVre
p6150
aVve
p6151
aVy
p6152
aVain
p6153
aVaren
p6154
aVcouldn
p6155
aVdidn
p6156
aVdoesn
p6157
aVhadn
p6158
aVhasn
p6159
aVhaven
p6160
aVisn
p6161
aVma
p6162
aVmightn
p6163
aVmustn
p6164
aVneedn
p6165
aVshan
p6166
aVshouldn
p6167
aVwasn
p6168
aVweren
p6169
aVwon
p6170
aVwouldn
p6171
asb.